
Drone.elf:     file format elf32-avr

Sections:
Idx Name          Size      VMA       LMA       File off  Algn
  0 .text         000042ee  00000000  00000000  00000094  2**1
                  CONTENTS, ALLOC, LOAD, READONLY, CODE
  1 .data         00000990  00802000  000042ee  00004382  2**0
                  CONTENTS, ALLOC, LOAD, DATA
  2 .bss          00000390  00802990  00802990  00004d12  2**0
                  ALLOC
  3 .stab         00000e40  00000000  00000000  00004d14  2**2
                  CONTENTS, READONLY, DEBUGGING
  4 .stabstr      0000035a  00000000  00000000  00005b54  2**0
                  CONTENTS, READONLY, DEBUGGING
  5 .comment      0000002f  00000000  00000000  00005eae  2**0
                  CONTENTS, READONLY
  6 .debug_aranges 000000e0  00000000  00000000  00005ee0  2**3
                  CONTENTS, READONLY, DEBUGGING
  7 .debug_info   00000cf9  00000000  00000000  00005fc0  2**0
                  CONTENTS, READONLY, DEBUGGING
  8 .debug_abbrev 00000621  00000000  00000000  00006cb9  2**0
                  CONTENTS, READONLY, DEBUGGING
  9 .debug_line   000009f8  00000000  00000000  000072da  2**0
                  CONTENTS, READONLY, DEBUGGING
 10 .debug_frame  00000130  00000000  00000000  00007cd4  2**2
                  CONTENTS, READONLY, DEBUGGING
 11 .debug_str    00000303  00000000  00000000  00007e04  2**0
                  CONTENTS, READONLY, DEBUGGING
 12 .debug_loc    000007b2  00000000  00000000  00008107  2**0
                  CONTENTS, READONLY, DEBUGGING
 13 .debug_ranges 00000060  00000000  00000000  000088c0  2**3
                  CONTENTS, READONLY, DEBUGGING

Disassembly of section .text:

00000000 <__vectors>:
       0:	f4 c0       	rjmp	.+488    	; 0x1ea <__ctors_end>
       2:	00 00       	nop
       4:	11 c1       	rjmp	.+546    	; 0x228 <__bad_interrupt>
       6:	00 00       	nop
       8:	0f c1       	rjmp	.+542    	; 0x228 <__bad_interrupt>
       a:	00 00       	nop
       c:	0d c1       	rjmp	.+538    	; 0x228 <__bad_interrupt>
       e:	00 00       	nop
      10:	0b c1       	rjmp	.+534    	; 0x228 <__bad_interrupt>
      12:	00 00       	nop
      14:	09 c1       	rjmp	.+530    	; 0x228 <__bad_interrupt>
      16:	00 00       	nop
      18:	07 c1       	rjmp	.+526    	; 0x228 <__bad_interrupt>
      1a:	00 00       	nop
      1c:	05 c1       	rjmp	.+522    	; 0x228 <__bad_interrupt>
      1e:	00 00       	nop
      20:	03 c1       	rjmp	.+518    	; 0x228 <__bad_interrupt>
      22:	00 00       	nop
      24:	01 c1       	rjmp	.+514    	; 0x228 <__bad_interrupt>
      26:	00 00       	nop
      28:	ff c0       	rjmp	.+510    	; 0x228 <__bad_interrupt>
      2a:	00 00       	nop
      2c:	fd c0       	rjmp	.+506    	; 0x228 <__bad_interrupt>
      2e:	00 00       	nop
      30:	fb c0       	rjmp	.+502    	; 0x228 <__bad_interrupt>
      32:	00 00       	nop
      34:	f9 c0       	rjmp	.+498    	; 0x228 <__bad_interrupt>
      36:	00 00       	nop
      38:	0c 94 e4 13 	jmp	0x27c8	; 0x27c8 <__vector_14>
      3c:	0c 94 11 14 	jmp	0x2822	; 0x2822 <__vector_15>
      40:	0c 94 3e 14 	jmp	0x287c	; 0x287c <__vector_16>
      44:	0c 94 6b 14 	jmp	0x28d6	; 0x28d6 <__vector_17>
      48:	0c 94 98 14 	jmp	0x2930	; 0x2930 <__vector_18>
      4c:	0c 94 c5 14 	jmp	0x298a	; 0x298a <__vector_19>
      50:	0c 94 f2 14 	jmp	0x29e4	; 0x29e4 <__vector_20>
      54:	0c 94 1f 15 	jmp	0x2a3e	; 0x2a3e <__vector_21>
      58:	0c 94 4c 15 	jmp	0x2a98	; 0x2a98 <__vector_22>
      5c:	0c 94 79 15 	jmp	0x2af2	; 0x2af2 <__vector_23>
      60:	e3 c0       	rjmp	.+454    	; 0x228 <__bad_interrupt>
      62:	00 00       	nop
      64:	0c 94 36 11 	jmp	0x226c	; 0x226c <__vector_25>
      68:	0c 94 6c 11 	jmp	0x22d8	; 0x22d8 <__vector_26>
      6c:	dd c0       	rjmp	.+442    	; 0x228 <__bad_interrupt>
      6e:	00 00       	nop
      70:	db c0       	rjmp	.+438    	; 0x228 <__bad_interrupt>
      72:	00 00       	nop
      74:	d9 c0       	rjmp	.+434    	; 0x228 <__bad_interrupt>
      76:	00 00       	nop
      78:	d7 c0       	rjmp	.+430    	; 0x228 <__bad_interrupt>
      7a:	00 00       	nop
      7c:	d5 c0       	rjmp	.+426    	; 0x228 <__bad_interrupt>
      7e:	00 00       	nop
      80:	d3 c0       	rjmp	.+422    	; 0x228 <__bad_interrupt>
      82:	00 00       	nop
      84:	d1 c0       	rjmp	.+418    	; 0x228 <__bad_interrupt>
      86:	00 00       	nop
      88:	cf c0       	rjmp	.+414    	; 0x228 <__bad_interrupt>
      8a:	00 00       	nop
      8c:	cd c0       	rjmp	.+410    	; 0x228 <__bad_interrupt>
      8e:	00 00       	nop
      90:	cb c0       	rjmp	.+406    	; 0x228 <__bad_interrupt>
      92:	00 00       	nop
      94:	c9 c0       	rjmp	.+402    	; 0x228 <__bad_interrupt>
      96:	00 00       	nop
      98:	c7 c0       	rjmp	.+398    	; 0x228 <__bad_interrupt>
      9a:	00 00       	nop
      9c:	c5 c0       	rjmp	.+394    	; 0x228 <__bad_interrupt>
      9e:	00 00       	nop
      a0:	c3 c0       	rjmp	.+390    	; 0x228 <__bad_interrupt>
      a2:	00 00       	nop
      a4:	c1 c0       	rjmp	.+386    	; 0x228 <__bad_interrupt>
      a6:	00 00       	nop
      a8:	bf c0       	rjmp	.+382    	; 0x228 <__bad_interrupt>
      aa:	00 00       	nop
      ac:	bd c0       	rjmp	.+378    	; 0x228 <__bad_interrupt>
      ae:	00 00       	nop
      b0:	bb c0       	rjmp	.+374    	; 0x228 <__bad_interrupt>
      b2:	00 00       	nop
      b4:	b9 c0       	rjmp	.+370    	; 0x228 <__bad_interrupt>
      b6:	00 00       	nop
      b8:	b7 c0       	rjmp	.+366    	; 0x228 <__bad_interrupt>
      ba:	00 00       	nop
      bc:	0c 94 b4 16 	jmp	0x2d68	; 0x2d68 <__vector_47>
      c0:	0c 94 e1 16 	jmp	0x2dc2	; 0x2dc2 <__vector_48>
      c4:	0c 94 0e 17 	jmp	0x2e1c	; 0x2e1c <__vector_49>
      c8:	0c 94 3b 17 	jmp	0x2e76	; 0x2e76 <__vector_50>
      cc:	0c 94 68 17 	jmp	0x2ed0	; 0x2ed0 <__vector_51>
      d0:	0c 94 95 17 	jmp	0x2f2a	; 0x2f2a <__vector_52>
      d4:	a9 c0       	rjmp	.+338    	; 0x228 <__bad_interrupt>
      d6:	00 00       	nop
      d8:	a7 c0       	rjmp	.+334    	; 0x228 <__bad_interrupt>
      da:	00 00       	nop
      dc:	a5 c0       	rjmp	.+330    	; 0x228 <__bad_interrupt>
      de:	00 00       	nop
      e0:	a3 c0       	rjmp	.+326    	; 0x228 <__bad_interrupt>
      e2:	00 00       	nop
      e4:	a1 c0       	rjmp	.+322    	; 0x228 <__bad_interrupt>
      e6:	00 00       	nop
      e8:	9f c0       	rjmp	.+318    	; 0x228 <__bad_interrupt>
      ea:	00 00       	nop
      ec:	9d c0       	rjmp	.+314    	; 0x228 <__bad_interrupt>
      ee:	00 00       	nop
      f0:	9b c0       	rjmp	.+310    	; 0x228 <__bad_interrupt>
      f2:	00 00       	nop
      f4:	99 c0       	rjmp	.+306    	; 0x228 <__bad_interrupt>
      f6:	00 00       	nop
      f8:	97 c0       	rjmp	.+302    	; 0x228 <__bad_interrupt>
      fa:	00 00       	nop
      fc:	95 c0       	rjmp	.+298    	; 0x228 <__bad_interrupt>
      fe:	00 00       	nop
     100:	93 c0       	rjmp	.+294    	; 0x228 <__bad_interrupt>
     102:	00 00       	nop
     104:	91 c0       	rjmp	.+290    	; 0x228 <__bad_interrupt>
     106:	00 00       	nop
     108:	8f c0       	rjmp	.+286    	; 0x228 <__bad_interrupt>
     10a:	00 00       	nop
     10c:	8d c0       	rjmp	.+282    	; 0x228 <__bad_interrupt>
     10e:	00 00       	nop
     110:	8b c0       	rjmp	.+278    	; 0x228 <__bad_interrupt>
     112:	00 00       	nop
     114:	89 c0       	rjmp	.+274    	; 0x228 <__bad_interrupt>
     116:	00 00       	nop
     118:	87 c0       	rjmp	.+270    	; 0x228 <__bad_interrupt>
     11a:	00 00       	nop
     11c:	85 c0       	rjmp	.+266    	; 0x228 <__bad_interrupt>
     11e:	00 00       	nop
     120:	83 c0       	rjmp	.+262    	; 0x228 <__bad_interrupt>
     122:	00 00       	nop
     124:	81 c0       	rjmp	.+258    	; 0x228 <__bad_interrupt>
     126:	00 00       	nop
     128:	7f c0       	rjmp	.+254    	; 0x228 <__bad_interrupt>
     12a:	00 00       	nop
     12c:	7d c0       	rjmp	.+250    	; 0x228 <__bad_interrupt>
     12e:	00 00       	nop
     130:	7b c0       	rjmp	.+246    	; 0x228 <__bad_interrupt>
     132:	00 00       	nop
     134:	0c 94 a6 15 	jmp	0x2b4c	; 0x2b4c <__vector_77>
     138:	0c 94 d3 15 	jmp	0x2ba6	; 0x2ba6 <__vector_78>
     13c:	0c 94 00 16 	jmp	0x2c00	; 0x2c00 <__vector_79>
     140:	0c 94 2d 16 	jmp	0x2c5a	; 0x2c5a <__vector_80>
     144:	0c 94 5a 16 	jmp	0x2cb4	; 0x2cb4 <__vector_81>
     148:	0c 94 87 16 	jmp	0x2d0e	; 0x2d0e <__vector_82>
     14c:	6d c0       	rjmp	.+218    	; 0x228 <__bad_interrupt>
     14e:	00 00       	nop
     150:	6b c0       	rjmp	.+214    	; 0x228 <__bad_interrupt>
     152:	00 00       	nop
     154:	69 c0       	rjmp	.+210    	; 0x228 <__bad_interrupt>
     156:	00 00       	nop
     158:	67 c0       	rjmp	.+206    	; 0x228 <__bad_interrupt>
     15a:	00 00       	nop
     15c:	65 c0       	rjmp	.+202    	; 0x228 <__bad_interrupt>
     15e:	00 00       	nop
     160:	63 c0       	rjmp	.+198    	; 0x228 <__bad_interrupt>
     162:	00 00       	nop
     164:	61 c0       	rjmp	.+194    	; 0x228 <__bad_interrupt>
     166:	00 00       	nop
     168:	5f c0       	rjmp	.+190    	; 0x228 <__bad_interrupt>
     16a:	00 00       	nop
     16c:	5d c0       	rjmp	.+186    	; 0x228 <__bad_interrupt>
     16e:	00 00       	nop
     170:	5b c0       	rjmp	.+182    	; 0x228 <__bad_interrupt>
     172:	00 00       	nop
     174:	59 c0       	rjmp	.+178    	; 0x228 <__bad_interrupt>
     176:	00 00       	nop
     178:	57 c0       	rjmp	.+174    	; 0x228 <__bad_interrupt>
     17a:	00 00       	nop
     17c:	55 c0       	rjmp	.+170    	; 0x228 <__bad_interrupt>
     17e:	00 00       	nop
     180:	53 c0       	rjmp	.+166    	; 0x228 <__bad_interrupt>
     182:	00 00       	nop
     184:	51 c0       	rjmp	.+162    	; 0x228 <__bad_interrupt>
     186:	00 00       	nop
     188:	4f c0       	rjmp	.+158    	; 0x228 <__bad_interrupt>
     18a:	00 00       	nop
     18c:	4d c0       	rjmp	.+154    	; 0x228 <__bad_interrupt>
     18e:	00 00       	nop
     190:	4b c0       	rjmp	.+150    	; 0x228 <__bad_interrupt>
     192:	00 00       	nop
     194:	49 c0       	rjmp	.+146    	; 0x228 <__bad_interrupt>
     196:	00 00       	nop
     198:	47 c0       	rjmp	.+142    	; 0x228 <__bad_interrupt>
     19a:	00 00       	nop
     19c:	45 c0       	rjmp	.+138    	; 0x228 <__bad_interrupt>
     19e:	00 00       	nop
     1a0:	0c 94 ee 20 	jmp	0x41dc	; 0x41dc <__vector_104>
     1a4:	41 c0       	rjmp	.+130    	; 0x228 <__bad_interrupt>
     1a6:	00 00       	nop
     1a8:	3f c0       	rjmp	.+126    	; 0x228 <__bad_interrupt>
     1aa:	00 00       	nop
     1ac:	3d c0       	rjmp	.+122    	; 0x228 <__bad_interrupt>
     1ae:	00 00       	nop
     1b0:	0c 94 c2 17 	jmp	0x2f84	; 0x2f84 <__vector_108>
     1b4:	0c 94 ef 17 	jmp	0x2fde	; 0x2fde <__vector_109>
     1b8:	0c 94 1c 18 	jmp	0x3038	; 0x3038 <__vector_110>
     1bc:	0c 94 49 18 	jmp	0x3092	; 0x3092 <__vector_111>
     1c0:	0c 94 76 18 	jmp	0x30ec	; 0x30ec <__vector_112>
     1c4:	0c 94 a3 18 	jmp	0x3146	; 0x3146 <__vector_113>

000001c8 <debuguartinit>:
     1c8:	44 45 42 55 47 20 55 41 52 54 20 49 4e 49 54 3a     DEBUG UART INIT:
     1d8:	20 00                                                .

000001da <bad>:
     1da:	42 41 44 00                                         BAD.

000001de <good>:
     1de:	47 4f 4f 44 00                                      GOOD.

000001e3 <sleepmgr_configs>:
     1e3:	00 0e 06 0c 04 00 00                                .......

000001ea <__ctors_end>:
     1ea:	11 24       	eor	r1, r1
     1ec:	1f be       	out	0x3f, r1	; 63
     1ee:	cf ef       	ldi	r28, 0xFF	; 255
     1f0:	df e2       	ldi	r29, 0x2F	; 47
     1f2:	de bf       	out	0x3e, r29	; 62
     1f4:	cd bf       	out	0x3d, r28	; 61

000001f6 <__do_copy_data>:
     1f6:	19 e2       	ldi	r17, 0x29	; 41
     1f8:	a0 e0       	ldi	r26, 0x00	; 0
     1fa:	b0 e2       	ldi	r27, 0x20	; 32
     1fc:	ee ee       	ldi	r30, 0xEE	; 238
     1fe:	f2 e4       	ldi	r31, 0x42	; 66
     200:	00 e0       	ldi	r16, 0x00	; 0
     202:	0b bf       	out	0x3b, r16	; 59
     204:	02 c0       	rjmp	.+4      	; 0x20a <__do_copy_data+0x14>
     206:	07 90       	elpm	r0, Z+
     208:	0d 92       	st	X+, r0
     20a:	a0 39       	cpi	r26, 0x90	; 144
     20c:	b1 07       	cpc	r27, r17
     20e:	d9 f7       	brne	.-10     	; 0x206 <__do_copy_data+0x10>

00000210 <__do_clear_bss>:
     210:	2d e2       	ldi	r18, 0x2D	; 45
     212:	a0 e9       	ldi	r26, 0x90	; 144
     214:	b9 e2       	ldi	r27, 0x29	; 41
     216:	01 c0       	rjmp	.+2      	; 0x21a <.do_clear_bss_start>

00000218 <.do_clear_bss_loop>:
     218:	1d 92       	st	X+, r1

0000021a <.do_clear_bss_start>:
     21a:	a0 32       	cpi	r26, 0x20	; 32
     21c:	b2 07       	cpc	r27, r18
     21e:	e1 f7       	brne	.-8      	; 0x218 <.do_clear_bss_loop>
     220:	0e 94 2a 1e 	call	0x3c54	; 0x3c54 <main>
     224:	0c 94 75 21 	jmp	0x42ea	; 0x42ea <_exit>

00000228 <__bad_interrupt>:
     228:	eb ce       	rjmp	.-554    	; 0x0 <__vectors>

0000022a <setupAnalog>:
     22a:	60 e9       	ldi	r22, 0x90	; 144
     22c:	79 e2       	ldi	r23, 0x29	; 41
     22e:	80 e0       	ldi	r24, 0x00	; 0
     230:	92 e0       	ldi	r25, 0x02	; 2
     232:	0e 94 90 12 	call	0x2520	; 0x2520 <adc_read_configuration>
     236:	46 e9       	ldi	r20, 0x96	; 150
     238:	59 e2       	ldi	r21, 0x29	; 41
     23a:	61 e0       	ldi	r22, 0x01	; 1
     23c:	80 e0       	ldi	r24, 0x00	; 0
     23e:	92 e0       	ldi	r25, 0x02	; 2
     240:	0e 94 ca 12 	call	0x2594	; 0x2594 <adcch_read_configuration>
     244:	e0 e9       	ldi	r30, 0x90	; 144
     246:	f9 e2       	ldi	r31, 0x29	; 41
     248:	90 81       	ld	r25, Z
     24a:	a1 e9       	ldi	r26, 0x91	; 145
     24c:	b9 e2       	ldi	r27, 0x29	; 41
     24e:	8c 91       	ld	r24, X
     250:	8f 7c       	andi	r24, 0xCF	; 207
     252:	80 62       	ori	r24, 0x20	; 32
     254:	8c 93       	st	X, r24
     256:	91 7e       	andi	r25, 0xE1	; 225
     258:	90 83       	st	Z, r25
     25a:	10 92 92 29 	sts	0x2992, r1
     25e:	86 e0       	ldi	r24, 0x06	; 6
     260:	83 83       	std	Z+3, r24	; 0x03
     262:	bf 01       	movw	r22, r30
     264:	80 e0       	ldi	r24, 0x00	; 0
     266:	92 e0       	ldi	r25, 0x02	; 2
     268:	0c 94 4d 12 	jmp	0x249a	; 0x249a <adc_write_configuration>

0000026c <sampleAnalogChannel>:
     26c:	80 31       	cpi	r24, 0x10	; 16
     26e:	48 f0       	brcs	.+18     	; 0x282 <sampleAnalogChannel+0x16>
     270:	10 92 96 29 	sts	0x2996, r1
     274:	80 51       	subi	r24, 0x10	; 16
     276:	88 0f       	add	r24, r24
     278:	88 0f       	add	r24, r24
     27a:	88 0f       	add	r24, r24
     27c:	80 93 97 29 	sts	0x2997, r24
     280:	08 c0       	rjmp	.+16     	; 0x292 <sampleAnalogChannel+0x26>
     282:	91 e0       	ldi	r25, 0x01	; 1
     284:	90 93 96 29 	sts	0x2996, r25
     288:	88 0f       	add	r24, r24
     28a:	88 0f       	add	r24, r24
     28c:	88 0f       	add	r24, r24
     28e:	80 93 97 29 	sts	0x2997, r24
     292:	46 e9       	ldi	r20, 0x96	; 150
     294:	59 e2       	ldi	r21, 0x29	; 41
     296:	61 e0       	ldi	r22, 0x01	; 1
     298:	80 e0       	ldi	r24, 0x00	; 0
     29a:	92 e0       	ldi	r25, 0x02	; 2
     29c:	0e 94 b0 12 	call	0x2560	; 0x2560 <adcch_write_configuration>
     2a0:	9f b7       	in	r25, 0x3f	; 63
     2a2:	f8 94       	cli
     2a4:	80 91 00 02 	lds	r24, 0x0200
     2a8:	84 60       	ori	r24, 0x04	; 4
     2aa:	80 93 00 02 	sts	0x0200, r24
     2ae:	9f bf       	out	0x3f, r25	; 63
     2b0:	80 91 06 02 	lds	r24, 0x0206
     2b4:	98 2f       	mov	r25, r24
     2b6:	91 70       	andi	r25, 0x01	; 1
     2b8:	80 ff       	sbrs	r24, 0
     2ba:	fa cf       	rjmp	.-12     	; 0x2b0 <sampleAnalogChannel+0x44>
     2bc:	90 93 06 02 	sts	0x0206, r25
     2c0:	20 91 24 02 	lds	r18, 0x0224
     2c4:	30 91 25 02 	lds	r19, 0x0225
     2c8:	c9 01       	movw	r24, r18
     2ca:	08 95       	ret

000002cc <enableAnalog>:
     2cc:	80 e0       	ldi	r24, 0x00	; 0
     2ce:	92 e0       	ldi	r25, 0x02	; 2
     2d0:	0c 94 36 12 	jmp	0x246c	; 0x246c <adc_enable>

000002d4 <board_init>:
     2d4:	af 92       	push	r10
     2d6:	bf 92       	push	r11
     2d8:	df 92       	push	r13
     2da:	ef 92       	push	r14
     2dc:	ff 92       	push	r15
     2de:	0f 93       	push	r16
     2e0:	1f 93       	push	r17
     2e2:	cf 93       	push	r28
     2e4:	df 93       	push	r29
     2e6:	80 e4       	ldi	r24, 0x40	; 64
     2e8:	a8 2e       	mov	r10, r24
     2ea:	86 e0       	ldi	r24, 0x06	; 6
     2ec:	b8 2e       	mov	r11, r24
     2ee:	52 e0       	ldi	r21, 0x02	; 2
     2f0:	d5 01       	movw	r26, r10
     2f2:	15 96       	adiw	r26, 0x05	; 5
     2f4:	5c 93       	st	X, r21
     2f6:	15 97       	sbiw	r26, 0x05	; 5
     2f8:	11 96       	adiw	r26, 0x01	; 1
     2fa:	5c 93       	st	X, r21
     2fc:	11 97       	sbiw	r26, 0x01	; 1
     2fe:	e0 eb       	ldi	r30, 0xB0	; 176
     300:	f0 e0       	ldi	r31, 0x00	; 0
     302:	50 83       	st	Z, r21
     304:	90 e2       	ldi	r25, 0x20	; 32
     306:	f9 2e       	mov	r15, r25
     308:	50 96       	adiw	r26, 0x10	; 16
     30a:	fc 92       	st	X, r15
     30c:	50 97       	sbiw	r26, 0x10	; 16
     30e:	01 e0       	ldi	r16, 0x01	; 1
     310:	12 96       	adiw	r26, 0x02	; 2
     312:	0c 93       	st	X, r16
     314:	12 97       	sbiw	r26, 0x02	; 2
     316:	00 83       	st	Z, r16
     318:	28 e1       	ldi	r18, 0x18	; 24
     31a:	e2 2e       	mov	r14, r18
     31c:	50 96       	adiw	r26, 0x10	; 16
     31e:	ec 92       	st	X, r14
     320:	20 e0       	ldi	r18, 0x00	; 0
     322:	36 e0       	ldi	r19, 0x06	; 6
     324:	18 e0       	ldi	r17, 0x08	; 8
     326:	e9 01       	movw	r28, r18
     328:	1a 83       	std	Y+2, r17	; 0x02
     32a:	10 83       	st	Z, r17
     32c:	18 8a       	std	Y+16, r1	; 0x10
     32e:	c0 e2       	ldi	r28, 0x20	; 32
     330:	d6 e0       	ldi	r29, 0x06	; 6
     332:	5a 83       	std	Y+2, r21	; 0x02
     334:	50 83       	st	Z, r21
     336:	e8 8a       	std	Y+16, r14	; 0x10
     338:	fa 82       	std	Y+2, r15	; 0x02
     33a:	f0 82       	st	Z, r15
     33c:	e8 8a       	std	Y+16, r14	; 0x10
     33e:	1a 83       	std	Y+2, r17	; 0x02
     340:	10 83       	st	Z, r17
     342:	e8 8a       	std	Y+16, r14	; 0x10
     344:	d9 01       	movw	r26, r18
     346:	12 96       	adiw	r26, 0x02	; 2
     348:	5c 93       	st	X, r21
     34a:	12 97       	sbiw	r26, 0x02	; 2
     34c:	50 83       	st	Z, r21
     34e:	50 96       	adiw	r26, 0x10	; 16
     350:	ec 92       	st	X, r14
     352:	50 97       	sbiw	r26, 0x10	; 16
     354:	12 96       	adiw	r26, 0x02	; 2
     356:	fc 92       	st	X, r15
     358:	12 97       	sbiw	r26, 0x02	; 2
     35a:	f0 82       	st	Z, r15
     35c:	50 96       	adiw	r26, 0x10	; 16
     35e:	ec 92       	st	X, r14
     360:	50 97       	sbiw	r26, 0x10	; 16
     362:	64 e0       	ldi	r22, 0x04	; 4
     364:	6a 83       	std	Y+2, r22	; 0x02
     366:	60 83       	st	Z, r22
     368:	e8 8a       	std	Y+16, r14	; 0x10
     36a:	40 e1       	ldi	r20, 0x10	; 16
     36c:	12 96       	adiw	r26, 0x02	; 2
     36e:	4c 93       	st	X, r20
     370:	12 97       	sbiw	r26, 0x02	; 2
     372:	40 83       	st	Z, r20
     374:	50 96       	adiw	r26, 0x10	; 16
     376:	ec 92       	st	X, r14
     378:	50 97       	sbiw	r26, 0x10	; 16
     37a:	70 e8       	ldi	r23, 0x80	; 128
     37c:	12 96       	adiw	r26, 0x02	; 2
     37e:	7c 93       	st	X, r23
     380:	12 97       	sbiw	r26, 0x02	; 2
     382:	70 83       	st	Z, r23
     384:	50 96       	adiw	r26, 0x10	; 16
     386:	ec 92       	st	X, r14
     388:	80 ea       	ldi	r24, 0xA0	; 160
     38a:	96 e0       	ldi	r25, 0x06	; 6
     38c:	dc 01       	movw	r26, r24
     38e:	12 96       	adiw	r26, 0x02	; 2
     390:	6c 93       	st	X, r22
     392:	12 97       	sbiw	r26, 0x02	; 2
     394:	60 83       	st	Z, r22
     396:	50 96       	adiw	r26, 0x10	; 16
     398:	4c 93       	st	X, r20
     39a:	50 97       	sbiw	r26, 0x10	; 16
     39c:	12 96       	adiw	r26, 0x02	; 2
     39e:	fc 92       	st	X, r15
     3a0:	12 97       	sbiw	r26, 0x02	; 2
     3a2:	f0 82       	st	Z, r15
     3a4:	50 96       	adiw	r26, 0x10	; 16
     3a6:	ec 92       	st	X, r14
     3a8:	50 97       	sbiw	r26, 0x10	; 16
     3aa:	12 96       	adiw	r26, 0x02	; 2
     3ac:	7c 93       	st	X, r23
     3ae:	12 97       	sbiw	r26, 0x02	; 2
     3b0:	70 83       	st	Z, r23
     3b2:	50 96       	adiw	r26, 0x10	; 16
     3b4:	ec 92       	st	X, r14
     3b6:	50 97       	sbiw	r26, 0x10	; 16
     3b8:	68 94       	set
     3ba:	dd 24       	eor	r13, r13
     3bc:	d6 f8       	bld	r13, 6
     3be:	12 96       	adiw	r26, 0x02	; 2
     3c0:	dc 92       	st	X, r13
     3c2:	12 97       	sbiw	r26, 0x02	; 2
     3c4:	d0 82       	st	Z, r13
     3c6:	50 96       	adiw	r26, 0x10	; 16
     3c8:	ec 92       	st	X, r14
     3ca:	d9 01       	movw	r26, r18
     3cc:	12 96       	adiw	r26, 0x02	; 2
     3ce:	6c 93       	st	X, r22
     3d0:	12 97       	sbiw	r26, 0x02	; 2
     3d2:	60 83       	st	Z, r22
     3d4:	50 96       	adiw	r26, 0x10	; 16
     3d6:	4c 93       	st	X, r20
     3d8:	50 97       	sbiw	r26, 0x10	; 16
     3da:	4a 83       	std	Y+2, r20	; 0x02
     3dc:	40 83       	st	Z, r20
     3de:	48 8b       	std	Y+16, r20	; 0x10
     3e0:	0a 83       	std	Y+2, r16	; 0x02
     3e2:	00 83       	st	Z, r16
     3e4:	18 8a       	std	Y+16, r1	; 0x10
     3e6:	12 96       	adiw	r26, 0x02	; 2
     3e8:	dc 92       	st	X, r13
     3ea:	12 97       	sbiw	r26, 0x02	; 2
     3ec:	d0 82       	st	Z, r13
     3ee:	50 96       	adiw	r26, 0x10	; 16
     3f0:	1c 92       	st	X, r1
     3f2:	7a 83       	std	Y+2, r23	; 0x02
     3f4:	70 83       	st	Z, r23
     3f6:	18 8a       	std	Y+16, r1	; 0x10
     3f8:	da 82       	std	Y+2, r13	; 0x02
     3fa:	d0 82       	st	Z, r13
     3fc:	18 8a       	std	Y+16, r1	; 0x10
     3fe:	a0 e8       	ldi	r26, 0x80	; 128
     400:	b6 e0       	ldi	r27, 0x06	; 6
     402:	15 96       	adiw	r26, 0x05	; 5
     404:	0c 93       	st	X, r16
     406:	15 97       	sbiw	r26, 0x05	; 5
     408:	11 96       	adiw	r26, 0x01	; 1
     40a:	0c 93       	st	X, r16
     40c:	11 97       	sbiw	r26, 0x01	; 1
     40e:	00 83       	st	Z, r16
     410:	50 96       	adiw	r26, 0x10	; 16
     412:	1c 92       	st	X, r1
     414:	50 97       	sbiw	r26, 0x10	; 16
     416:	ec 01       	movw	r28, r24
     418:	0d 83       	std	Y+5, r16	; 0x05
     41a:	09 83       	std	Y+1, r16	; 0x01
     41c:	00 83       	st	Z, r16
     41e:	18 8a       	std	Y+16, r1	; 0x10
     420:	16 96       	adiw	r26, 0x06	; 6
     422:	4c 93       	st	X, r20
     424:	16 97       	sbiw	r26, 0x06	; 6
     426:	12 96       	adiw	r26, 0x02	; 2
     428:	4c 93       	st	X, r20
     42a:	12 97       	sbiw	r26, 0x02	; 2
     42c:	40 83       	st	Z, r20
     42e:	50 96       	adiw	r26, 0x10	; 16
     430:	1c 92       	st	X, r1
     432:	50 97       	sbiw	r26, 0x10	; 16
     434:	11 96       	adiw	r26, 0x01	; 1
     436:	5c 93       	st	X, r21
     438:	11 97       	sbiw	r26, 0x01	; 1
     43a:	50 83       	st	Z, r21
     43c:	50 96       	adiw	r26, 0x10	; 16
     43e:	1c 92       	st	X, r1
     440:	50 97       	sbiw	r26, 0x10	; 16
     442:	15 96       	adiw	r26, 0x05	; 5
     444:	1c 93       	st	X, r17
     446:	15 97       	sbiw	r26, 0x05	; 5
     448:	11 96       	adiw	r26, 0x01	; 1
     44a:	1c 93       	st	X, r17
     44c:	11 97       	sbiw	r26, 0x01	; 1
     44e:	10 83       	st	Z, r17
     450:	50 96       	adiw	r26, 0x10	; 16
     452:	1c 92       	st	X, r1
     454:	50 97       	sbiw	r26, 0x10	; 16
     456:	15 96       	adiw	r26, 0x05	; 5
     458:	6c 93       	st	X, r22
     45a:	15 97       	sbiw	r26, 0x05	; 5
     45c:	12 96       	adiw	r26, 0x02	; 2
     45e:	6c 93       	st	X, r22
     460:	12 97       	sbiw	r26, 0x02	; 2
     462:	60 83       	st	Z, r22
     464:	50 96       	adiw	r26, 0x10	; 16
     466:	1c 92       	st	X, r1
     468:	50 97       	sbiw	r26, 0x10	; 16
     46a:	16 96       	adiw	r26, 0x06	; 6
     46c:	fc 92       	st	X, r15
     46e:	16 97       	sbiw	r26, 0x06	; 6
     470:	11 96       	adiw	r26, 0x01	; 1
     472:	fc 92       	st	X, r15
     474:	11 97       	sbiw	r26, 0x01	; 1
     476:	f0 82       	st	Z, r15
     478:	50 96       	adiw	r26, 0x10	; 16
     47a:	1c 92       	st	X, r1
     47c:	50 97       	sbiw	r26, 0x10	; 16
     47e:	5d 83       	std	Y+5, r21	; 0x05
     480:	59 83       	std	Y+1, r21	; 0x01
     482:	50 83       	st	Z, r21
     484:	18 8a       	std	Y+16, r1	; 0x10
     486:	80 e6       	ldi	r24, 0x60	; 96
     488:	96 e0       	ldi	r25, 0x06	; 6
     48a:	ec 01       	movw	r28, r24
     48c:	0d 83       	std	Y+5, r16	; 0x05
     48e:	09 83       	std	Y+1, r16	; 0x01
     490:	00 83       	st	Z, r16
     492:	18 8a       	std	Y+16, r1	; 0x10
     494:	5d 83       	std	Y+5, r21	; 0x05
     496:	59 83       	std	Y+1, r21	; 0x01
     498:	50 83       	st	Z, r21
     49a:	18 8a       	std	Y+16, r1	; 0x10
     49c:	e5 01       	movw	r28, r10
     49e:	1d 83       	std	Y+5, r17	; 0x05
     4a0:	19 83       	std	Y+1, r17	; 0x01
     4a2:	10 83       	st	Z, r17
     4a4:	18 8a       	std	Y+16, r1	; 0x10
     4a6:	6d 83       	std	Y+5, r22	; 0x05
     4a8:	6a 83       	std	Y+2, r22	; 0x02
     4aa:	60 83       	st	Z, r22
     4ac:	18 8a       	std	Y+16, r1	; 0x10
     4ae:	15 96       	adiw	r26, 0x05	; 5
     4b0:	7c 93       	st	X, r23
     4b2:	15 97       	sbiw	r26, 0x05	; 5
     4b4:	11 96       	adiw	r26, 0x01	; 1
     4b6:	7c 93       	st	X, r23
     4b8:	11 97       	sbiw	r26, 0x01	; 1
     4ba:	70 83       	st	Z, r23
     4bc:	50 96       	adiw	r26, 0x10	; 16
     4be:	1c 92       	st	X, r1
     4c0:	dc 01       	movw	r26, r24
     4c2:	15 96       	adiw	r26, 0x05	; 5
     4c4:	1c 93       	st	X, r17
     4c6:	15 97       	sbiw	r26, 0x05	; 5
     4c8:	11 96       	adiw	r26, 0x01	; 1
     4ca:	1c 93       	st	X, r17
     4cc:	11 97       	sbiw	r26, 0x01	; 1
     4ce:	10 83       	st	Z, r17
     4d0:	50 96       	adiw	r26, 0x10	; 16
     4d2:	1c 92       	st	X, r1
     4d4:	50 97       	sbiw	r26, 0x10	; 16
     4d6:	12 96       	adiw	r26, 0x02	; 2
     4d8:	6c 93       	st	X, r22
     4da:	12 97       	sbiw	r26, 0x02	; 2
     4dc:	60 83       	st	Z, r22
     4de:	50 96       	adiw	r26, 0x10	; 16
     4e0:	1c 92       	st	X, r1
     4e2:	50 97       	sbiw	r26, 0x10	; 16
     4e4:	12 96       	adiw	r26, 0x02	; 2
     4e6:	7c 93       	st	X, r23
     4e8:	12 97       	sbiw	r26, 0x02	; 2
     4ea:	70 83       	st	Z, r23
     4ec:	50 96       	adiw	r26, 0x10	; 16
     4ee:	4c 93       	st	X, r20
     4f0:	4a 83       	std	Y+2, r20	; 0x02
     4f2:	40 83       	st	Z, r20
     4f4:	48 8b       	std	Y+16, r20	; 0x10
     4f6:	fa 82       	std	Y+2, r15	; 0x02
     4f8:	f0 82       	st	Z, r15
     4fa:	48 8b       	std	Y+16, r20	; 0x10
     4fc:	da 82       	std	Y+2, r13	; 0x02
     4fe:	d0 82       	st	Z, r13
     500:	48 8b       	std	Y+16, r20	; 0x10
     502:	7a 83       	std	Y+2, r23	; 0x02
     504:	70 83       	st	Z, r23
     506:	48 8b       	std	Y+16, r20	; 0x10
     508:	df 91       	pop	r29
     50a:	cf 91       	pop	r28
     50c:	1f 91       	pop	r17
     50e:	0f 91       	pop	r16
     510:	ff 90       	pop	r15
     512:	ef 90       	pop	r14
     514:	df 90       	pop	r13
     516:	bf 90       	pop	r11
     518:	af 90       	pop	r10
     51a:	08 95       	ret

0000051c <__portable_avr_delay_cycles>:
     51c:	61 50       	subi	r22, 0x01	; 1
     51e:	71 09       	sbc	r23, r1
     520:	81 09       	sbc	r24, r1
     522:	91 09       	sbc	r25, r1
     524:	d9 f7       	brne	.-10     	; 0x51c <__portable_avr_delay_cycles>
     526:	08 95       	ret

00000528 <ManufactureTestButtonPress>:
     528:	40 ef       	ldi	r20, 0xF0	; 240
     52a:	59 e4       	ldi	r21, 0x49	; 73
     52c:	62 e0       	ldi	r22, 0x02	; 2
     52e:	70 e0       	ldi	r23, 0x00	; 0
     530:	84 e6       	ldi	r24, 0x64	; 100
     532:	9c e2       	ldi	r25, 0x2C	; 44
     534:	0e 94 4c 10 	call	0x2098	; 0x2098 <startTimeout>
     538:	40 e0       	ldi	r20, 0x00	; 0
     53a:	60 e0       	ldi	r22, 0x00	; 0
     53c:	80 e0       	ldi	r24, 0x00	; 0
     53e:	0e 94 11 10 	call	0x2022	; 0x2022 <setLEDValue>
     542:	0e 94 b1 11 	call	0x2362	; 0x2362 <WatchdogPet>
     546:	88 e0       	ldi	r24, 0x08	; 8
     548:	c7 d0       	rcall	.+398    	; 0x6d8 <buttonActivated>
     54a:	c8 2f       	mov	r28, r24
     54c:	89 e0       	ldi	r24, 0x09	; 9
     54e:	c4 d0       	rcall	.+392    	; 0x6d8 <buttonActivated>
     550:	88 23       	and	r24, r24
     552:	69 f0       	breq	.+26     	; 0x56e <ManufactureTestButtonPress+0x46>
     554:	cc 23       	and	r28, r28
     556:	59 f0       	breq	.+22     	; 0x56e <ManufactureTestButtonPress+0x46>
     558:	6a ea       	ldi	r22, 0xAA	; 170
     55a:	70 eb       	ldi	r23, 0xB0	; 176
     55c:	88 e2       	ldi	r24, 0x28	; 40
     55e:	90 e0       	ldi	r25, 0x00	; 0
     560:	dd df       	rcall	.-70     	; 0x51c <__portable_avr_delay_cycles>
     562:	61 e0       	ldi	r22, 0x01	; 1
     564:	89 e7       	ldi	r24, 0x79	; 121
     566:	90 e0       	ldi	r25, 0x00	; 0
     568:	0e 94 e4 12 	call	0x25c8	; 0x25c8 <ccp_write_io>
     56c:	ff cf       	rjmp	.-2      	; 0x56c <ManufactureTestButtonPress+0x44>
     56e:	84 e6       	ldi	r24, 0x64	; 100
     570:	9c e2       	ldi	r25, 0x2C	; 44
     572:	0e 94 65 10 	call	0x20ca	; 0x20ca <checkTimeout>
     576:	88 23       	and	r24, r24
     578:	c1 f0       	breq	.+48     	; 0x5aa <ManufactureTestButtonPress+0x82>
     57a:	84 e6       	ldi	r24, 0x64	; 100
     57c:	9c e2       	ldi	r25, 0x2C	; 44
     57e:	0e 94 92 10 	call	0x2124	; 0x2124 <cancelTimeout>
     582:	40 e0       	ldi	r20, 0x00	; 0
     584:	60 e0       	ldi	r22, 0x00	; 0
     586:	80 e0       	ldi	r24, 0x00	; 0
     588:	0e 94 11 10 	call	0x2022	; 0x2022 <setLEDValue>
     58c:	80 91 61 2c 	lds	r24, 0x2C61
     590:	88 1f       	adc	r24, r24
     592:	88 27       	eor	r24, r24
     594:	88 1f       	adc	r24, r24
     596:	90 91 62 2c 	lds	r25, 0x2C62
     59a:	9f 73       	andi	r25, 0x3F	; 63
     59c:	99 0f       	add	r25, r25
     59e:	98 2b       	or	r25, r24
     5a0:	81 e0       	ldi	r24, 0x01	; 1
     5a2:	09 f4       	brne	.+2      	; 0x5a6 <ManufactureTestButtonPress+0x7e>
     5a4:	80 e0       	ldi	r24, 0x00	; 0
     5a6:	0e 94 31 0f 	call	0x1e62	; 0x1e62 <powerOff>
     5aa:	80 e0       	ldi	r24, 0x00	; 0
     5ac:	95 d0       	rcall	.+298    	; 0x6d8 <buttonActivated>
     5ae:	88 23       	and	r24, r24
     5b0:	31 f0       	breq	.+12     	; 0x5be <ManufactureTestButtonPress+0x96>
     5b2:	82 e3       	ldi	r24, 0x32	; 50
     5b4:	0e 94 f3 0f 	call	0x1fe6	; 0x1fe6 <setGreenLEDValue>
     5b8:	c9 e3       	ldi	r28, 0x39	; 57
     5ba:	d0 e2       	ldi	r29, 0x20	; 32
     5bc:	36 c0       	rjmp	.+108    	; 0x62a <ManufactureTestButtonPress+0x102>
     5be:	81 e0       	ldi	r24, 0x01	; 1
     5c0:	8b d0       	rcall	.+278    	; 0x6d8 <buttonActivated>
     5c2:	81 11       	cpse	r24, r1
     5c4:	f6 cf       	rjmp	.-20     	; 0x5b2 <ManufactureTestButtonPress+0x8a>
     5c6:	82 e0       	ldi	r24, 0x02	; 2
     5c8:	87 d0       	rcall	.+270    	; 0x6d8 <buttonActivated>
     5ca:	81 11       	cpse	r24, r1
     5cc:	f2 cf       	rjmp	.-28     	; 0x5b2 <ManufactureTestButtonPress+0x8a>
     5ce:	83 e0       	ldi	r24, 0x03	; 3
     5d0:	83 d0       	rcall	.+262    	; 0x6d8 <buttonActivated>
     5d2:	81 11       	cpse	r24, r1
     5d4:	ee cf       	rjmp	.-36     	; 0x5b2 <ManufactureTestButtonPress+0x8a>
     5d6:	84 e0       	ldi	r24, 0x04	; 4
     5d8:	7f d0       	rcall	.+254    	; 0x6d8 <buttonActivated>
     5da:	81 11       	cpse	r24, r1
     5dc:	ea cf       	rjmp	.-44     	; 0x5b2 <ManufactureTestButtonPress+0x8a>
     5de:	85 e0       	ldi	r24, 0x05	; 5
     5e0:	7b d0       	rcall	.+246    	; 0x6d8 <buttonActivated>
     5e2:	81 11       	cpse	r24, r1
     5e4:	e6 cf       	rjmp	.-52     	; 0x5b2 <ManufactureTestButtonPress+0x8a>
     5e6:	86 e0       	ldi	r24, 0x06	; 6
     5e8:	77 d0       	rcall	.+238    	; 0x6d8 <buttonActivated>
     5ea:	81 11       	cpse	r24, r1
     5ec:	e2 cf       	rjmp	.-60     	; 0x5b2 <ManufactureTestButtonPress+0x8a>
     5ee:	87 e0       	ldi	r24, 0x07	; 7
     5f0:	73 d0       	rcall	.+230    	; 0x6d8 <buttonActivated>
     5f2:	81 11       	cpse	r24, r1
     5f4:	de cf       	rjmp	.-68     	; 0x5b2 <ManufactureTestButtonPress+0x8a>
     5f6:	88 e0       	ldi	r24, 0x08	; 8
     5f8:	6f d0       	rcall	.+222    	; 0x6d8 <buttonActivated>
     5fa:	81 11       	cpse	r24, r1
     5fc:	da cf       	rjmp	.-76     	; 0x5b2 <ManufactureTestButtonPress+0x8a>
     5fe:	89 e0       	ldi	r24, 0x09	; 9
     600:	6b d0       	rcall	.+214    	; 0x6d8 <buttonActivated>
     602:	81 11       	cpse	r24, r1
     604:	d6 cf       	rjmp	.-84     	; 0x5b2 <ManufactureTestButtonPress+0x8a>
     606:	8b e0       	ldi	r24, 0x0B	; 11
     608:	67 d0       	rcall	.+206    	; 0x6d8 <buttonActivated>
     60a:	81 11       	cpse	r24, r1
     60c:	d2 cf       	rjmp	.-92     	; 0x5b2 <ManufactureTestButtonPress+0x8a>
     60e:	8a e0       	ldi	r24, 0x0A	; 10
     610:	63 d0       	rcall	.+198    	; 0x6d8 <buttonActivated>
     612:	81 11       	cpse	r24, r1
     614:	ce cf       	rjmp	.-100    	; 0x5b2 <ManufactureTestButtonPress+0x8a>
     616:	8d e0       	ldi	r24, 0x0D	; 13
     618:	5f d0       	rcall	.+190    	; 0x6d8 <buttonActivated>
     61a:	81 11       	cpse	r24, r1
     61c:	ca cf       	rjmp	.-108    	; 0x5b2 <ManufactureTestButtonPress+0x8a>
     61e:	8c e0       	ldi	r24, 0x0C	; 12
     620:	5b d0       	rcall	.+182    	; 0x6d8 <buttonActivated>
     622:	88 23       	and	r24, r24
     624:	09 f4       	brne	.+2      	; 0x628 <ManufactureTestButtonPress+0x100>
     626:	c8 cf       	rjmp	.-112    	; 0x5b8 <ManufactureTestButtonPress+0x90>
     628:	c4 cf       	rjmp	.-120    	; 0x5b2 <ManufactureTestButtonPress+0x8a>
     62a:	fe 01       	movw	r30, r28
     62c:	31 97       	sbiw	r30, 0x01	; 1
     62e:	80 81       	ld	r24, Z
     630:	1d de       	rcall	.-966    	; 0x26c <sampleAnalogChannel>
     632:	7c 01       	movw	r14, r24
     634:	88 81       	ld	r24, Y
     636:	1a de       	rcall	.-972    	; 0x26c <sampleAnalogChannel>
     638:	8c 01       	movw	r16, r24
     63a:	8d ea       	ldi	r24, 0xAD	; 173
     63c:	e8 16       	cp	r14, r24
     63e:	8d e0       	ldi	r24, 0x0D	; 13
     640:	f8 06       	cpc	r15, r24
     642:	18 f0       	brcs	.+6      	; 0x64a <ManufactureTestButtonPress+0x122>
     644:	82 e3       	ldi	r24, 0x32	; 50
     646:	0e 94 eb 0f 	call	0x1fd6	; 0x1fd6 <setRedLEDValue>
     64a:	0d 3a       	cpi	r16, 0xAD	; 173
     64c:	1d 40       	sbci	r17, 0x0D	; 13
     64e:	18 f0       	brcs	.+6      	; 0x656 <ManufactureTestButtonPress+0x12e>
     650:	82 e3       	ldi	r24, 0x32	; 50
     652:	0e 94 02 10 	call	0x2004	; 0x2004 <setBlueLEDValue>
     656:	2e 96       	adiw	r28, 0x0e	; 14
     658:	80 e2       	ldi	r24, 0x20	; 32
     65a:	c5 35       	cpi	r28, 0x55	; 85
     65c:	d8 07       	cpc	r29, r24
     65e:	29 f7       	brne	.-54     	; 0x62a <ManufactureTestButtonPress+0x102>
     660:	6b cf       	rjmp	.-298    	; 0x538 <ManufactureTestButtonPress+0x10>

00000662 <biosMain>:
     662:	80 e0       	ldi	r24, 0x00	; 0
     664:	0e 94 c2 0f 	call	0x1f84	; 0x1f84 <setupLEDs>
     668:	40 e0       	ldi	r20, 0x00	; 0
     66a:	60 e0       	ldi	r22, 0x00	; 0
     66c:	80 e0       	ldi	r24, 0x00	; 0
     66e:	0e 94 11 10 	call	0x2022	; 0x2022 <setLEDValue>
     672:	40 e0       	ldi	r20, 0x00	; 0
     674:	60 e0       	ldi	r22, 0x00	; 0
     676:	82 e3       	ldi	r24, 0x32	; 50
     678:	0e 94 11 10 	call	0x2022	; 0x2022 <setLEDValue>
     67c:	6a ea       	ldi	r22, 0xAA	; 170
     67e:	76 e4       	ldi	r23, 0x46	; 70
     680:	80 e1       	ldi	r24, 0x10	; 16
     682:	90 e0       	ldi	r25, 0x00	; 0
     684:	4b df       	rcall	.-362    	; 0x51c <__portable_avr_delay_cycles>
     686:	40 e0       	ldi	r20, 0x00	; 0
     688:	60 e0       	ldi	r22, 0x00	; 0
     68a:	80 e0       	ldi	r24, 0x00	; 0
     68c:	0e 94 11 10 	call	0x2022	; 0x2022 <setLEDValue>
     690:	6a ea       	ldi	r22, 0xAA	; 170
     692:	76 e4       	ldi	r23, 0x46	; 70
     694:	80 e1       	ldi	r24, 0x10	; 16
     696:	90 e0       	ldi	r25, 0x00	; 0
     698:	41 df       	rcall	.-382    	; 0x51c <__portable_avr_delay_cycles>
     69a:	40 e0       	ldi	r20, 0x00	; 0
     69c:	60 e0       	ldi	r22, 0x00	; 0
     69e:	82 e3       	ldi	r24, 0x32	; 50
     6a0:	0e 94 11 10 	call	0x2022	; 0x2022 <setLEDValue>
     6a4:	6a ea       	ldi	r22, 0xAA	; 170
     6a6:	76 e4       	ldi	r23, 0x46	; 70
     6a8:	80 e1       	ldi	r24, 0x10	; 16
     6aa:	90 e0       	ldi	r25, 0x00	; 0
     6ac:	37 df       	rcall	.-402    	; 0x51c <__portable_avr_delay_cycles>
     6ae:	40 e0       	ldi	r20, 0x00	; 0
     6b0:	60 e0       	ldi	r22, 0x00	; 0
     6b2:	80 e0       	ldi	r24, 0x00	; 0
     6b4:	0e 94 11 10 	call	0x2022	; 0x2022 <setLEDValue>
     6b8:	6a ea       	ldi	r22, 0xAA	; 170
     6ba:	76 e4       	ldi	r23, 0x46	; 70
     6bc:	80 e1       	ldi	r24, 0x10	; 16
     6be:	90 e0       	ldi	r25, 0x00	; 0
     6c0:	2d df       	rcall	.-422    	; 0x51c <__portable_avr_delay_cycles>
     6c2:	40 e0       	ldi	r20, 0x00	; 0
     6c4:	60 e0       	ldi	r22, 0x00	; 0
     6c6:	82 e3       	ldi	r24, 0x32	; 50
     6c8:	0e 94 11 10 	call	0x2022	; 0x2022 <setLEDValue>
     6cc:	6a ea       	ldi	r22, 0xAA	; 170
     6ce:	76 e4       	ldi	r23, 0x46	; 70
     6d0:	80 e1       	ldi	r24, 0x10	; 16
     6d2:	90 e0       	ldi	r25, 0x00	; 0
     6d4:	23 df       	rcall	.-442    	; 0x51c <__portable_avr_delay_cycles>
     6d6:	28 df       	rcall	.-432    	; 0x528 <ManufactureTestButtonPress>

000006d8 <buttonActivated>:
     6d8:	94 e0       	ldi	r25, 0x04	; 4
     6da:	89 9f       	mul	r24, r25
     6dc:	f0 01       	movw	r30, r0
     6de:	11 24       	eor	r1, r1
     6e0:	e0 50       	subi	r30, 0x00	; 0
     6e2:	f0 4e       	sbci	r31, 0xE0	; 224
     6e4:	80 81       	ld	r24, Z
     6e6:	a8 2f       	mov	r26, r24
     6e8:	a6 95       	lsr	r26
     6ea:	a6 95       	lsr	r26
     6ec:	a6 95       	lsr	r26
     6ee:	90 e2       	ldi	r25, 0x20	; 32
     6f0:	a9 9f       	mul	r26, r25
     6f2:	d0 01       	movw	r26, r0
     6f4:	11 24       	eor	r1, r1
     6f6:	ba 5f       	subi	r27, 0xFA	; 250
     6f8:	18 96       	adiw	r26, 0x08	; 8
     6fa:	2c 91       	ld	r18, X
     6fc:	38 2f       	mov	r19, r24
     6fe:	37 70       	andi	r19, 0x07	; 7
     700:	81 e0       	ldi	r24, 0x01	; 1
     702:	90 e0       	ldi	r25, 0x00	; 0
     704:	03 2e       	mov	r0, r19
     706:	01 c0       	rjmp	.+2      	; 0x70a <buttonActivated+0x32>
     708:	88 0f       	add	r24, r24
     70a:	0a 94       	dec	r0
     70c:	ea f7       	brpl	.-6      	; 0x708 <buttonActivated+0x30>
     70e:	28 23       	and	r18, r24
     710:	93 81       	ldd	r25, Z+3	; 0x03
     712:	81 e0       	ldi	r24, 0x01	; 1
     714:	22 23       	and	r18, r18
     716:	19 f0       	breq	.+6      	; 0x71e <buttonActivated+0x46>
     718:	91 11       	cpse	r25, r1
     71a:	03 c0       	rjmp	.+6      	; 0x722 <buttonActivated+0x4a>
     71c:	01 c0       	rjmp	.+2      	; 0x720 <buttonActivated+0x48>
     71e:	91 11       	cpse	r25, r1
     720:	80 e0       	ldi	r24, 0x00	; 0
     722:	08 95       	ret

00000724 <keyboardiOSInit>:
     724:	80 93 99 29 	sts	0x2999, r24
     728:	90 93 9a 29 	sts	0x299A, r25
     72c:	0c 94 37 1d 	jmp	0x3a6e	; 0x3a6e <BluetoothKeyboardMode>

00000730 <keyboardiOSButtonHandler>:
     730:	cf 93       	push	r28
     732:	20 91 99 29 	lds	r18, 0x2999
     736:	30 91 9a 29 	lds	r19, 0x299A
     73a:	90 e0       	ldi	r25, 0x00	; 0
     73c:	49 e0       	ldi	r20, 0x09	; 9
     73e:	48 9f       	mul	r20, r24
     740:	f0 01       	movw	r30, r0
     742:	49 9f       	mul	r20, r25
     744:	f0 0d       	add	r31, r0
     746:	11 24       	eor	r1, r1
     748:	e2 0f       	add	r30, r18
     74a:	f3 1f       	adc	r31, r19
     74c:	61 30       	cpi	r22, 0x01	; 1
     74e:	11 f4       	brne	.+4      	; 0x754 <keyboardiOSButtonHandler+0x24>
     750:	c6 81       	ldd	r28, Z+6	; 0x06
     752:	01 c0       	rjmp	.+2      	; 0x756 <keyboardiOSButtonHandler+0x26>
     754:	c4 81       	ldd	r28, Z+4	; 0x04
     756:	cc 23       	and	r28, r28
     758:	99 f1       	breq	.+102    	; 0x7c0 <keyboardiOSButtonHandler+0x90>
     75a:	8c 2f       	mov	r24, r28
     75c:	0e 94 68 0e 	call	0x1cd0	; 0x1cd0 <sendDBGChar>
     760:	81 ea       	ldi	r24, 0xA1	; 161
     762:	0e 94 9f 1c 	call	0x393e	; 0x393e <sendBTChar>
     766:	81 e0       	ldi	r24, 0x01	; 1
     768:	0e 94 9f 1c 	call	0x393e	; 0x393e <sendBTChar>
     76c:	80 e0       	ldi	r24, 0x00	; 0
     76e:	0e 94 9f 1c 	call	0x393e	; 0x393e <sendBTChar>
     772:	80 e0       	ldi	r24, 0x00	; 0
     774:	0e 94 9f 1c 	call	0x393e	; 0x393e <sendBTChar>
     778:	8c 2f       	mov	r24, r28
     77a:	0e 94 9f 1c 	call	0x393e	; 0x393e <sendBTChar>
     77e:	80 e0       	ldi	r24, 0x00	; 0
     780:	0e 94 9f 1c 	call	0x393e	; 0x393e <sendBTChar>
     784:	80 e0       	ldi	r24, 0x00	; 0
     786:	0e 94 9f 1c 	call	0x393e	; 0x393e <sendBTChar>
     78a:	80 e0       	ldi	r24, 0x00	; 0
     78c:	0e 94 9f 1c 	call	0x393e	; 0x393e <sendBTChar>
     790:	80 e0       	ldi	r24, 0x00	; 0
     792:	0e 94 9f 1c 	call	0x393e	; 0x393e <sendBTChar>
     796:	80 e0       	ldi	r24, 0x00	; 0
     798:	0e 94 9f 1c 	call	0x393e	; 0x393e <sendBTChar>
     79c:	81 ea       	ldi	r24, 0xA1	; 161
     79e:	0e 94 9f 1c 	call	0x393e	; 0x393e <sendBTChar>
     7a2:	81 e0       	ldi	r24, 0x01	; 1
     7a4:	0e 94 9f 1c 	call	0x393e	; 0x393e <sendBTChar>
     7a8:	80 e0       	ldi	r24, 0x00	; 0
     7aa:	0e 94 9f 1c 	call	0x393e	; 0x393e <sendBTChar>
     7ae:	80 e0       	ldi	r24, 0x00	; 0
     7b0:	0e 94 9f 1c 	call	0x393e	; 0x393e <sendBTChar>
     7b4:	c6 e0       	ldi	r28, 0x06	; 6
     7b6:	80 e0       	ldi	r24, 0x00	; 0
     7b8:	0e 94 9f 1c 	call	0x393e	; 0x393e <sendBTChar>
     7bc:	c1 50       	subi	r28, 0x01	; 1
     7be:	d9 f7       	brne	.-10     	; 0x7b6 <keyboardiOSButtonHandler+0x86>
     7c0:	cf 91       	pop	r28
     7c2:	08 95       	ret

000007c4 <initCB>:
     7c4:	fc 01       	movw	r30, r24
     7c6:	60 83       	st	Z, r22
     7c8:	71 83       	std	Z+1, r23	; 0x01
     7ca:	45 83       	std	Z+5, r20	; 0x05
     7cc:	12 82       	std	Z+2, r1	; 0x02
     7ce:	14 82       	std	Z+4, r1	; 0x04
     7d0:	82 81       	ldd	r24, Z+2	; 0x02
     7d2:	83 83       	std	Z+3, r24	; 0x03
     7d4:	08 95       	ret

000007d6 <addByteToCB>:
     7d6:	fc 01       	movw	r30, r24
     7d8:	9f b7       	in	r25, 0x3f	; 63
     7da:	f8 94       	cli
     7dc:	24 81       	ldd	r18, Z+4	; 0x04
     7de:	85 81       	ldd	r24, Z+5	; 0x05
     7e0:	28 17       	cp	r18, r24
     7e2:	90 f4       	brcc	.+36     	; 0x808 <addByteToCB+0x32>
     7e4:	82 81       	ldd	r24, Z+2	; 0x02
     7e6:	a0 81       	ld	r26, Z
     7e8:	b1 81       	ldd	r27, Z+1	; 0x01
     7ea:	a8 0f       	add	r26, r24
     7ec:	b1 1d       	adc	r27, r1
     7ee:	6c 93       	st	X, r22
     7f0:	8f 5f       	subi	r24, 0xFF	; 255
     7f2:	82 83       	std	Z+2, r24	; 0x02
     7f4:	84 81       	ldd	r24, Z+4	; 0x04
     7f6:	8f 5f       	subi	r24, 0xFF	; 255
     7f8:	84 83       	std	Z+4, r24	; 0x04
     7fa:	22 81       	ldd	r18, Z+2	; 0x02
     7fc:	85 81       	ldd	r24, Z+5	; 0x05
     7fe:	28 17       	cp	r18, r24
     800:	28 f0       	brcs	.+10     	; 0x80c <addByteToCB+0x36>
     802:	12 82       	std	Z+2, r1	; 0x02
     804:	81 e0       	ldi	r24, 0x01	; 1
     806:	03 c0       	rjmp	.+6      	; 0x80e <addByteToCB+0x38>
     808:	80 e0       	ldi	r24, 0x00	; 0
     80a:	01 c0       	rjmp	.+2      	; 0x80e <addByteToCB+0x38>
     80c:	81 e0       	ldi	r24, 0x01	; 1
     80e:	9f bf       	out	0x3f, r25	; 63
     810:	08 95       	ret

00000812 <readByteFromCB>:
     812:	fc 01       	movw	r30, r24
     814:	9f b7       	in	r25, 0x3f	; 63
     816:	f8 94       	cli
     818:	84 81       	ldd	r24, Z+4	; 0x04
     81a:	88 23       	and	r24, r24
     81c:	a1 f0       	breq	.+40     	; 0x846 <readByteFromCB+0x34>
     81e:	83 81       	ldd	r24, Z+3	; 0x03
     820:	a0 81       	ld	r26, Z
     822:	b1 81       	ldd	r27, Z+1	; 0x01
     824:	a8 0f       	add	r26, r24
     826:	b1 1d       	adc	r27, r1
     828:	2c 91       	ld	r18, X
     82a:	db 01       	movw	r26, r22
     82c:	2c 93       	st	X, r18
     82e:	8f 5f       	subi	r24, 0xFF	; 255
     830:	83 83       	std	Z+3, r24	; 0x03
     832:	84 81       	ldd	r24, Z+4	; 0x04
     834:	81 50       	subi	r24, 0x01	; 1
     836:	84 83       	std	Z+4, r24	; 0x04
     838:	23 81       	ldd	r18, Z+3	; 0x03
     83a:	85 81       	ldd	r24, Z+5	; 0x05
     83c:	28 17       	cp	r18, r24
     83e:	28 f0       	brcs	.+10     	; 0x84a <readByteFromCB+0x38>
     840:	13 82       	std	Z+3, r1	; 0x03
     842:	81 e0       	ldi	r24, 0x01	; 1
     844:	03 c0       	rjmp	.+6      	; 0x84c <readByteFromCB+0x3a>
     846:	80 e0       	ldi	r24, 0x00	; 0
     848:	01 c0       	rjmp	.+2      	; 0x84c <readByteFromCB+0x3a>
     84a:	81 e0       	ldi	r24, 0x01	; 1
     84c:	9f bf       	out	0x3f, r25	; 63
     84e:	08 95       	ret

00000850 <readFromCB>:
     850:	cf 92       	push	r12
     852:	df 92       	push	r13
     854:	ef 92       	push	r14
     856:	ff 92       	push	r15
     858:	0f 93       	push	r16
     85a:	1f 93       	push	r17
     85c:	cf 93       	push	r28
     85e:	df 93       	push	r29
     860:	1f 92       	push	r1
     862:	cd b7       	in	r28, 0x3d	; 61
     864:	de b7       	in	r29, 0x3e	; 62
     866:	8c 01       	movw	r16, r24
     868:	f6 2e       	mov	r15, r22
     86a:	c6 2e       	mov	r12, r22
     86c:	d7 2e       	mov	r13, r23
     86e:	ec 2c       	mov	r14, r12
     870:	ef 18       	sub	r14, r15
     872:	e4 16       	cp	r14, r20
     874:	50 f4       	brcc	.+20     	; 0x88a <readFromCB+0x3a>
     876:	b6 01       	movw	r22, r12
     878:	c8 01       	movw	r24, r16
     87a:	49 83       	std	Y+1, r20	; 0x01
     87c:	ca df       	rcall	.-108    	; 0x812 <readByteFromCB>
     87e:	9f ef       	ldi	r25, 0xFF	; 255
     880:	c9 1a       	sub	r12, r25
     882:	d9 0a       	sbc	r13, r25
     884:	49 81       	ldd	r20, Y+1	; 0x01
     886:	81 11       	cpse	r24, r1
     888:	f2 cf       	rjmp	.-28     	; 0x86e <readFromCB+0x1e>
     88a:	8e 2d       	mov	r24, r14
     88c:	0f 90       	pop	r0
     88e:	df 91       	pop	r29
     890:	cf 91       	pop	r28
     892:	1f 91       	pop	r17
     894:	0f 91       	pop	r16
     896:	ff 90       	pop	r15
     898:	ef 90       	pop	r14
     89a:	df 90       	pop	r13
     89c:	cf 90       	pop	r12
     89e:	08 95       	ret

000008a0 <readStringFromCB>:
     8a0:	cf 93       	push	r28
     8a2:	fc 01       	movw	r30, r24
     8a4:	3f b7       	in	r19, 0x3f	; 63
     8a6:	f8 94       	cli
     8a8:	83 81       	ldd	r24, Z+3	; 0x03
     8aa:	94 81       	ldd	r25, Z+4	; 0x04
     8ac:	94 17       	cp	r25, r20
     8ae:	10 f4       	brcc	.+4      	; 0x8b4 <readStringFromCB+0x14>
     8b0:	24 81       	ldd	r18, Z+4	; 0x04
     8b2:	01 c0       	rjmp	.+2      	; 0x8b6 <readStringFromCB+0x16>
     8b4:	24 2f       	mov	r18, r20
     8b6:	90 e0       	ldi	r25, 0x00	; 0
     8b8:	0d c0       	rjmp	.+26     	; 0x8d4 <readStringFromCB+0x34>
     8ba:	a0 81       	ld	r26, Z
     8bc:	b1 81       	ldd	r27, Z+1	; 0x01
     8be:	a8 0f       	add	r26, r24
     8c0:	b1 1d       	adc	r27, r1
     8c2:	5c 91       	ld	r21, X
     8c4:	55 23       	and	r21, r21
     8c6:	51 f0       	breq	.+20     	; 0x8dc <readStringFromCB+0x3c>
     8c8:	8f 5f       	subi	r24, 0xFF	; 255
     8ca:	55 81       	ldd	r21, Z+5	; 0x05
     8cc:	85 17       	cp	r24, r21
     8ce:	08 f0       	brcs	.+2      	; 0x8d2 <readStringFromCB+0x32>
     8d0:	80 e0       	ldi	r24, 0x00	; 0
     8d2:	9f 5f       	subi	r25, 0xFF	; 255
     8d4:	92 13       	cpse	r25, r18
     8d6:	f1 cf       	rjmp	.-30     	; 0x8ba <readStringFromCB+0x1a>
     8d8:	80 e0       	ldi	r24, 0x00	; 0
     8da:	01 c0       	rjmp	.+2      	; 0x8de <readStringFromCB+0x3e>
     8dc:	81 e0       	ldi	r24, 0x01	; 1
     8de:	3f bf       	out	0x3f, r19	; 63
     8e0:	29 2f       	mov	r18, r25
     8e2:	30 e0       	ldi	r19, 0x00	; 0
     8e4:	2f 5f       	subi	r18, 0xFF	; 255
     8e6:	3f 4f       	sbci	r19, 0xFF	; 255
     8e8:	a4 2f       	mov	r26, r20
     8ea:	b0 e0       	ldi	r27, 0x00	; 0
     8ec:	c1 e0       	ldi	r28, 0x01	; 1
     8ee:	2a 17       	cp	r18, r26
     8f0:	3b 07       	cpc	r19, r27
     8f2:	0c f0       	brlt	.+2      	; 0x8f6 <readStringFromCB+0x56>
     8f4:	c0 e0       	ldi	r28, 0x00	; 0
     8f6:	c8 23       	and	r28, r24
     8f8:	21 f0       	breq	.+8      	; 0x902 <readStringFromCB+0x62>
     8fa:	49 2f       	mov	r20, r25
     8fc:	4f 5f       	subi	r20, 0xFF	; 255
     8fe:	cf 01       	movw	r24, r30
     900:	a7 df       	rcall	.-178    	; 0x850 <readFromCB>
     902:	8c 2f       	mov	r24, r28
     904:	cf 91       	pop	r28
     906:	08 95       	ret

00000908 <__portable_avr_delay_cycles.constprop.1>:
     908:	80 e0       	ldi	r24, 0x00	; 0
     90a:	90 e0       	ldi	r25, 0x00	; 0
     90c:	01 96       	adiw	r24, 0x01	; 1
     90e:	85 35       	cpi	r24, 0x55	; 85
     910:	20 ed       	ldi	r18, 0xD0	; 208
     912:	92 07       	cpc	r25, r18
     914:	d9 f7       	brne	.-10     	; 0x90c <__portable_avr_delay_cycles.constprop.1+0x4>
     916:	08 95       	ret

00000918 <byteToASCIIHex>:
     918:	fb 01       	movw	r30, r22
     91a:	da 01       	movw	r26, r20
     91c:	98 2f       	mov	r25, r24
     91e:	9f 70       	andi	r25, 0x0F	; 15
     920:	9c 93       	st	X, r25
     922:	82 95       	swap	r24
     924:	8f 70       	andi	r24, 0x0F	; 15
     926:	80 83       	st	Z, r24
     928:	8c 91       	ld	r24, X
     92a:	8a 30       	cpi	r24, 0x0A	; 10
     92c:	1c f0       	brlt	.+6      	; 0x934 <byteToASCIIHex+0x1c>
     92e:	89 5a       	subi	r24, 0xA9	; 169
     930:	8c 93       	st	X, r24
     932:	02 c0       	rjmp	.+4      	; 0x938 <byteToASCIIHex+0x20>
     934:	80 5d       	subi	r24, 0xD0	; 208
     936:	8c 93       	st	X, r24
     938:	80 81       	ld	r24, Z
     93a:	8a 30       	cpi	r24, 0x0A	; 10
     93c:	1c f0       	brlt	.+6      	; 0x944 <byteToASCIIHex+0x2c>
     93e:	89 5a       	subi	r24, 0xA9	; 169
     940:	80 83       	st	Z, r24
     942:	08 95       	ret
     944:	80 5d       	subi	r24, 0xD0	; 208
     946:	80 83       	st	Z, r24
     948:	08 95       	ret

0000094a <ASCIIHexToByte>:
     94a:	80 62       	ori	r24, 0x20	; 32
     94c:	60 62       	ori	r22, 0x20	; 32
     94e:	81 36       	cpi	r24, 0x61	; 97
     950:	14 f0       	brlt	.+4      	; 0x956 <ASCIIHexToByte+0xc>
     952:	87 55       	subi	r24, 0x57	; 87
     954:	01 c0       	rjmp	.+2      	; 0x958 <ASCIIHexToByte+0xe>
     956:	80 53       	subi	r24, 0x30	; 48
     958:	98 2f       	mov	r25, r24
     95a:	92 95       	swap	r25
     95c:	90 7f       	andi	r25, 0xF0	; 240
     95e:	86 2f       	mov	r24, r22
     960:	61 36       	cpi	r22, 0x61	; 97
     962:	1c f0       	brlt	.+6      	; 0x96a <ASCIIHexToByte+0x20>
     964:	87 55       	subi	r24, 0x57	; 87
     966:	89 0f       	add	r24, r25
     968:	08 95       	ret
     96a:	80 53       	subi	r24, 0x30	; 48
     96c:	89 0f       	add	r24, r25
     96e:	08 95       	ret

00000970 <sendCommOK>:
     970:	61 e0       	ldi	r22, 0x01	; 1
     972:	8d e6       	ldi	r24, 0x6D	; 109
     974:	90 e2       	ldi	r25, 0x20	; 32
     976:	0c 94 0b 11 	jmp	0x2216	; 0x2216 <sendUSBString>

0000097a <commBL>:
     97a:	fa df       	rcall	.-12     	; 0x970 <sendCommOK>
     97c:	c5 df       	rcall	.-118    	; 0x908 <__portable_avr_delay_cycles.constprop.1>
     97e:	0c 94 00 00 	jmp	0	; 0x0 <__vectors>

00000982 <commRS>:
     982:	f6 df       	rcall	.-20     	; 0x970 <sendCommOK>
     984:	c1 df       	rcall	.-126    	; 0x908 <__portable_avr_delay_cycles.constprop.1>
     986:	61 e0       	ldi	r22, 0x01	; 1
     988:	89 e7       	ldi	r24, 0x79	; 121
     98a:	90 e0       	ldi	r25, 0x00	; 0
     98c:	0e 94 e4 12 	call	0x25c8	; 0x25c8 <ccp_write_io>
     990:	ff cf       	rjmp	.-2      	; 0x990 <commRS+0xe>

00000992 <commSG>:
     992:	8b e9       	ldi	r24, 0x9B	; 155
     994:	99 e2       	ldi	r25, 0x29	; 41
     996:	85 d1       	rcall	.+778    	; 0xca2 <writeGlobalHeader>
     998:	eb df       	rcall	.-42     	; 0x970 <sendCommOK>
     99a:	10 92 22 2a 	sts	0x2A22, r1
     99e:	08 95       	ret

000009a0 <commRG>:
     9a0:	0f 93       	push	r16
     9a2:	1f 93       	push	r17
     9a4:	cf 93       	push	r28
     9a6:	df 93       	push	r29
     9a8:	00 d0       	rcall	.+0      	; 0x9aa <commRG+0xa>
     9aa:	cd b7       	in	r28, 0x3d	; 61
     9ac:	de b7       	in	r29, 0x3e	; 62
     9ae:	8b e9       	ldi	r24, 0x9B	; 155
     9b0:	99 e2       	ldi	r25, 0x29	; 41
     9b2:	70 d1       	rcall	.+736    	; 0xc94 <readGlobalHeader>
     9b4:	0b e9       	ldi	r16, 0x9B	; 155
     9b6:	19 e2       	ldi	r17, 0x29	; 41
     9b8:	ae 01       	movw	r20, r28
     9ba:	4f 5f       	subi	r20, 0xFF	; 255
     9bc:	5f 4f       	sbci	r21, 0xFF	; 255
     9be:	be 01       	movw	r22, r28
     9c0:	6e 5f       	subi	r22, 0xFE	; 254
     9c2:	7f 4f       	sbci	r23, 0xFF	; 255
     9c4:	f8 01       	movw	r30, r16
     9c6:	81 91       	ld	r24, Z+
     9c8:	8f 01       	movw	r16, r30
     9ca:	a6 df       	rcall	.-180    	; 0x918 <byteToASCIIHex>
     9cc:	8a 81       	ldd	r24, Y+2	; 0x02
     9ce:	0e 94 fa 10 	call	0x21f4	; 0x21f4 <sendUSBChar>
     9d2:	89 81       	ldd	r24, Y+1	; 0x01
     9d4:	0e 94 fa 10 	call	0x21f4	; 0x21f4 <sendUSBChar>
     9d8:	fa e2       	ldi	r31, 0x2A	; 42
     9da:	02 32       	cpi	r16, 0x22	; 34
     9dc:	1f 07       	cpc	r17, r31
     9de:	61 f7       	brne	.-40     	; 0x9b8 <commRG+0x18>
     9e0:	80 e0       	ldi	r24, 0x00	; 0
     9e2:	0e 94 fa 10 	call	0x21f4	; 0x21f4 <sendUSBChar>
     9e6:	c4 df       	rcall	.-120    	; 0x970 <sendCommOK>
     9e8:	10 92 22 2a 	sts	0x2A22, r1
     9ec:	0f 90       	pop	r0
     9ee:	0f 90       	pop	r0
     9f0:	df 91       	pop	r29
     9f2:	cf 91       	pop	r28
     9f4:	1f 91       	pop	r17
     9f6:	0f 91       	pop	r16
     9f8:	08 95       	ret

000009fa <sendCommNO>:
     9fa:	61 e0       	ldi	r22, 0x01	; 1
     9fc:	80 e7       	ldi	r24, 0x70	; 112
     9fe:	90 e2       	ldi	r25, 0x20	; 32
     a00:	0c 94 0b 11 	jmp	0x2216	; 0x2216 <sendUSBString>

00000a04 <commSC>:
     a04:	fc 01       	movw	r30, r24
     a06:	80 81       	ld	r24, Z
     a08:	88 23       	and	r24, r24
     a0a:	29 f0       	breq	.+10     	; 0xa16 <commSC+0x12>
     a0c:	61 81       	ldd	r22, Z+1	; 0x01
     a0e:	66 23       	and	r22, r22
     a10:	11 f0       	breq	.+4      	; 0xa16 <commSC+0x12>
     a12:	92 81       	ldd	r25, Z+2	; 0x02
     a14:	91 11       	cpse	r25, r1
     a16:	f1 cf       	rjmp	.-30     	; 0x9fa <sendCommNO>
     a18:	98 df       	rcall	.-208    	; 0x94a <ASCIIHexToByte>
     a1a:	63 e2       	ldi	r22, 0x23	; 35
     a1c:	7a e2       	ldi	r23, 0x2A	; 42
     a1e:	52 d1       	rcall	.+676    	; 0xcc4 <writeControllerConfig>
     a20:	a7 df       	rcall	.-178    	; 0x970 <sendCommOK>
     a22:	10 92 ce 2a 	sts	0x2ACE, r1
     a26:	08 95       	ret

00000a28 <commWC>:
     a28:	ff 92       	push	r15
     a2a:	0f 93       	push	r16
     a2c:	1f 93       	push	r17
     a2e:	cf 93       	push	r28
     a30:	df 93       	push	r29
     a32:	ec 01       	movw	r28, r24
     a34:	a8 2f       	mov	r26, r24
     a36:	bd 2f       	mov	r27, r29
     a38:	fd 01       	movw	r30, r26
     a3a:	01 90       	ld	r0, Z+
     a3c:	00 20       	and	r0, r0
     a3e:	e9 f7       	brne	.-6      	; 0xa3a <commWC+0x12>
     a40:	31 97       	sbiw	r30, 0x01	; 1
     a42:	ea 1b       	sub	r30, r26
     a44:	fb 0b       	sbc	r31, r27
     a46:	fe 2e       	mov	r15, r30
     a48:	e0 fd       	sbrc	r30, 0
     a4a:	04 c0       	rjmp	.+8      	; 0xa54 <commWC+0x2c>
     a4c:	10 91 ce 2a 	lds	r17, 0x2ACE
     a50:	00 e0       	ldi	r16, 0x00	; 0
     a52:	13 c0       	rjmp	.+38     	; 0xa7a <commWC+0x52>
     a54:	df 91       	pop	r29
     a56:	cf 91       	pop	r28
     a58:	1f 91       	pop	r17
     a5a:	0f 91       	pop	r16
     a5c:	ff 90       	pop	r15
     a5e:	cd cf       	rjmp	.-102    	; 0x9fa <sendCommNO>
     a60:	fe 01       	movw	r30, r28
     a62:	e0 0f       	add	r30, r16
     a64:	f1 1d       	adc	r31, r1
     a66:	61 81       	ldd	r22, Z+1	; 0x01
     a68:	80 81       	ld	r24, Z
     a6a:	6f df       	rcall	.-290    	; 0x94a <ASCIIHexToByte>
     a6c:	e1 2f       	mov	r30, r17
     a6e:	f0 e0       	ldi	r31, 0x00	; 0
     a70:	ed 5d       	subi	r30, 0xDD	; 221
     a72:	f5 4d       	sbci	r31, 0xD5	; 213
     a74:	80 83       	st	Z, r24
     a76:	0e 5f       	subi	r16, 0xFE	; 254
     a78:	1f 5f       	subi	r17, 0xFF	; 255
     a7a:	0f 15       	cp	r16, r15
     a7c:	28 f0       	brcs	.+10     	; 0xa88 <commWC+0x60>
     a7e:	10 93 ce 2a 	sts	0x2ACE, r17
     a82:	0f 11       	cpse	r16, r15
     a84:	e7 cf       	rjmp	.-50     	; 0xa54 <commWC+0x2c>
     a86:	03 c0       	rjmp	.+6      	; 0xa8e <commWC+0x66>
     a88:	1b 3a       	cpi	r17, 0xAB	; 171
     a8a:	50 f3       	brcs	.-44     	; 0xa60 <commWC+0x38>
     a8c:	f8 cf       	rjmp	.-16     	; 0xa7e <commWC+0x56>
     a8e:	df 91       	pop	r29
     a90:	cf 91       	pop	r28
     a92:	1f 91       	pop	r17
     a94:	0f 91       	pop	r16
     a96:	ff 90       	pop	r15
     a98:	6b cf       	rjmp	.-298    	; 0x970 <sendCommOK>

00000a9a <commAC>:
     a9a:	fc 01       	movw	r30, r24
     a9c:	80 81       	ld	r24, Z
     a9e:	88 23       	and	r24, r24
     aa0:	29 f0       	breq	.+10     	; 0xaac <commAC+0x12>
     aa2:	61 81       	ldd	r22, Z+1	; 0x01
     aa4:	66 23       	and	r22, r22
     aa6:	11 f0       	breq	.+4      	; 0xaac <commAC+0x12>
     aa8:	92 81       	ldd	r25, Z+2	; 0x02
     aaa:	91 11       	cpse	r25, r1
     aac:	a6 cf       	rjmp	.-180    	; 0x9fa <sendCommNO>
     aae:	4d df       	rcall	.-358    	; 0x94a <ASCIIHexToByte>
     ab0:	80 93 ce 2a 	sts	0x2ACE, r24
     ab4:	5d cf       	rjmp	.-326    	; 0x970 <sendCommOK>

00000ab6 <commRC>:
     ab6:	0f 93       	push	r16
     ab8:	1f 93       	push	r17
     aba:	cf 93       	push	r28
     abc:	df 93       	push	r29
     abe:	00 d0       	rcall	.+0      	; 0xac0 <commRC+0xa>
     ac0:	cd b7       	in	r28, 0x3d	; 61
     ac2:	de b7       	in	r29, 0x3e	; 62
     ac4:	fc 01       	movw	r30, r24
     ac6:	80 81       	ld	r24, Z
     ac8:	88 23       	and	r24, r24
     aca:	31 f0       	breq	.+12     	; 0xad8 <commRC+0x22>
     acc:	61 81       	ldd	r22, Z+1	; 0x01
     ace:	66 23       	and	r22, r22
     ad0:	19 f0       	breq	.+6      	; 0xad8 <commRC+0x22>
     ad2:	92 81       	ldd	r25, Z+2	; 0x02
     ad4:	99 23       	and	r25, r25
     ad6:	11 f0       	breq	.+4      	; 0xadc <commRC+0x26>
     ad8:	90 df       	rcall	.-224    	; 0x9fa <sendCommNO>
     ada:	20 c0       	rjmp	.+64     	; 0xb1c <commRC+0x66>
     adc:	36 df       	rcall	.-404    	; 0x94a <ASCIIHexToByte>
     ade:	63 e2       	ldi	r22, 0x23	; 35
     ae0:	7a e2       	ldi	r23, 0x2A	; 42
     ae2:	e6 d0       	rcall	.+460    	; 0xcb0 <readControllerConfig>
     ae4:	03 e2       	ldi	r16, 0x23	; 35
     ae6:	1a e2       	ldi	r17, 0x2A	; 42
     ae8:	ae 01       	movw	r20, r28
     aea:	4f 5f       	subi	r20, 0xFF	; 255
     aec:	5f 4f       	sbci	r21, 0xFF	; 255
     aee:	be 01       	movw	r22, r28
     af0:	6e 5f       	subi	r22, 0xFE	; 254
     af2:	7f 4f       	sbci	r23, 0xFF	; 255
     af4:	f8 01       	movw	r30, r16
     af6:	81 91       	ld	r24, Z+
     af8:	8f 01       	movw	r16, r30
     afa:	0e df       	rcall	.-484    	; 0x918 <byteToASCIIHex>
     afc:	8a 81       	ldd	r24, Y+2	; 0x02
     afe:	0e 94 fa 10 	call	0x21f4	; 0x21f4 <sendUSBChar>
     b02:	89 81       	ldd	r24, Y+1	; 0x01
     b04:	0e 94 fa 10 	call	0x21f4	; 0x21f4 <sendUSBChar>
     b08:	fa e2       	ldi	r31, 0x2A	; 42
     b0a:	0e 3c       	cpi	r16, 0xCE	; 206
     b0c:	1f 07       	cpc	r17, r31
     b0e:	61 f7       	brne	.-40     	; 0xae8 <commRC+0x32>
     b10:	80 e0       	ldi	r24, 0x00	; 0
     b12:	0e 94 fa 10 	call	0x21f4	; 0x21f4 <sendUSBChar>
     b16:	2c df       	rcall	.-424    	; 0x970 <sendCommOK>
     b18:	10 92 ce 2a 	sts	0x2ACE, r1
     b1c:	0f 90       	pop	r0
     b1e:	0f 90       	pop	r0
     b20:	df 91       	pop	r29
     b22:	cf 91       	pop	r28
     b24:	1f 91       	pop	r17
     b26:	0f 91       	pop	r16
     b28:	08 95       	ret

00000b2a <commWG>:
     b2a:	ff 92       	push	r15
     b2c:	0f 93       	push	r16
     b2e:	1f 93       	push	r17
     b30:	cf 93       	push	r28
     b32:	df 93       	push	r29
     b34:	ec 01       	movw	r28, r24
     b36:	a8 2f       	mov	r26, r24
     b38:	bd 2f       	mov	r27, r29
     b3a:	fd 01       	movw	r30, r26
     b3c:	01 90       	ld	r0, Z+
     b3e:	00 20       	and	r0, r0
     b40:	e9 f7       	brne	.-6      	; 0xb3c <commWG+0x12>
     b42:	31 97       	sbiw	r30, 0x01	; 1
     b44:	ea 1b       	sub	r30, r26
     b46:	fb 0b       	sbc	r31, r27
     b48:	fe 2e       	mov	r15, r30
     b4a:	e0 fd       	sbrc	r30, 0
     b4c:	04 c0       	rjmp	.+8      	; 0xb56 <commWG+0x2c>
     b4e:	10 91 22 2a 	lds	r17, 0x2A22
     b52:	00 e0       	ldi	r16, 0x00	; 0
     b54:	13 c0       	rjmp	.+38     	; 0xb7c <commWG+0x52>
     b56:	df 91       	pop	r29
     b58:	cf 91       	pop	r28
     b5a:	1f 91       	pop	r17
     b5c:	0f 91       	pop	r16
     b5e:	ff 90       	pop	r15
     b60:	4c cf       	rjmp	.-360    	; 0x9fa <sendCommNO>
     b62:	fe 01       	movw	r30, r28
     b64:	e0 0f       	add	r30, r16
     b66:	f1 1d       	adc	r31, r1
     b68:	61 81       	ldd	r22, Z+1	; 0x01
     b6a:	80 81       	ld	r24, Z
     b6c:	ee de       	rcall	.-548    	; 0x94a <ASCIIHexToByte>
     b6e:	e1 2f       	mov	r30, r17
     b70:	f0 e0       	ldi	r31, 0x00	; 0
     b72:	e5 56       	subi	r30, 0x65	; 101
     b74:	f6 4d       	sbci	r31, 0xD6	; 214
     b76:	80 83       	st	Z, r24
     b78:	0e 5f       	subi	r16, 0xFE	; 254
     b7a:	1f 5f       	subi	r17, 0xFF	; 255
     b7c:	0f 15       	cp	r16, r15
     b7e:	28 f0       	brcs	.+10     	; 0xb8a <commWG+0x60>
     b80:	10 93 22 2a 	sts	0x2A22, r17
     b84:	0f 11       	cpse	r16, r15
     b86:	e7 cf       	rjmp	.-50     	; 0xb56 <commWG+0x2c>
     b88:	03 c0       	rjmp	.+6      	; 0xb90 <commWG+0x66>
     b8a:	17 38       	cpi	r17, 0x87	; 135
     b8c:	50 f3       	brcs	.-44     	; 0xb62 <commWG+0x38>
     b8e:	f8 cf       	rjmp	.-16     	; 0xb80 <commWG+0x56>
     b90:	df 91       	pop	r29
     b92:	cf 91       	pop	r28
     b94:	1f 91       	pop	r17
     b96:	0f 91       	pop	r16
     b98:	ff 90       	pop	r15
     b9a:	ea ce       	rjmp	.-556    	; 0x970 <sendCommOK>

00000b9c <commAG>:
     b9c:	fc 01       	movw	r30, r24
     b9e:	80 81       	ld	r24, Z
     ba0:	88 23       	and	r24, r24
     ba2:	29 f0       	breq	.+10     	; 0xbae <commAG+0x12>
     ba4:	61 81       	ldd	r22, Z+1	; 0x01
     ba6:	66 23       	and	r22, r22
     ba8:	11 f0       	breq	.+4      	; 0xbae <commAG+0x12>
     baa:	92 81       	ldd	r25, Z+2	; 0x02
     bac:	91 11       	cpse	r25, r1
     bae:	25 cf       	rjmp	.-438    	; 0x9fa <sendCommNO>
     bb0:	cc de       	rcall	.-616    	; 0x94a <ASCIIHexToByte>
     bb2:	80 93 22 2a 	sts	0x2A22, r24
     bb6:	dc ce       	rjmp	.-584    	; 0x970 <sendCommOK>

00000bb8 <processComm>:
     bb8:	af 92       	push	r10
     bba:	bf 92       	push	r11
     bbc:	cf 92       	push	r12
     bbe:	df 92       	push	r13
     bc0:	ef 92       	push	r14
     bc2:	ff 92       	push	r15
     bc4:	0f 93       	push	r16
     bc6:	1f 93       	push	r17
     bc8:	cf 93       	push	r28
     bca:	df 93       	push	r29
     bcc:	cd b7       	in	r28, 0x3d	; 61
     bce:	de b7       	in	r29, 0x3e	; 62
     bd0:	c3 54       	subi	r28, 0x43	; 67
     bd2:	d1 09       	sbc	r29, r1
     bd4:	cd bf       	out	0x3d, r28	; 61
     bd6:	de bf       	out	0x3e, r29	; 62
     bd8:	60 e4       	ldi	r22, 0x40	; 64
     bda:	ce 01       	movw	r24, r28
     bdc:	01 96       	adiw	r24, 0x01	; 1
     bde:	0e 94 30 11 	call	0x2260	; 0x2260 <recvUSBString>
     be2:	88 23       	and	r24, r24
     be4:	09 f4       	brne	.+2      	; 0xbe8 <processComm+0x30>
     be6:	47 c0       	rjmp	.+142    	; 0xc76 <processComm+0xbe>
     be8:	89 81       	ldd	r24, Y+1	; 0x01
     bea:	8e 01       	movw	r16, r28
     bec:	0f 5b       	subi	r16, 0xBF	; 191
     bee:	1f 4f       	sbci	r17, 0xFF	; 255
     bf0:	f8 01       	movw	r30, r16
     bf2:	80 83       	st	Z, r24
     bf4:	9a 81       	ldd	r25, Y+2	; 0x02
     bf6:	91 83       	std	Z+1, r25	; 0x01
     bf8:	12 82       	std	Z+2, r1	; 0x02
     bfa:	99 27       	eor	r25, r25
     bfc:	87 fd       	sbrc	r24, 7
     bfe:	90 95       	com	r25
     c00:	8d 58       	subi	r24, 0x8D	; 141
     c02:	9f 4d       	sbci	r25, 0xDF	; 223
     c04:	0e 94 78 0e 	call	0x1cf0	; 0x1cf0 <sendDBGLine>
     c08:	9d eb       	ldi	r25, 0xBD	; 189
     c0a:	c9 2e       	mov	r12, r25
     c0c:	90 e2       	ldi	r25, 0x20	; 32
     c0e:	d9 2e       	mov	r13, r25
     c10:	e1 2c       	mov	r14, r1
     c12:	f1 2c       	mov	r15, r1
     c14:	58 01       	movw	r10, r16
     c16:	f6 01       	movw	r30, r12
     c18:	00 81       	ld	r16, Z
     c1a:	11 81       	ldd	r17, Z+1	; 0x01
     c1c:	b5 01       	movw	r22, r10
     c1e:	c8 01       	movw	r24, r16
     c20:	0e 94 6c 21 	call	0x42d8	; 0x42d8 <strcmp>
     c24:	00 97       	sbiw	r24, 0x00	; 0
     c26:	a9 f4       	brne	.+42     	; 0xc52 <processComm+0x9a>
     c28:	8b e7       	ldi	r24, 0x7B	; 123
     c2a:	90 e2       	ldi	r25, 0x20	; 32
     c2c:	0e 94 6d 0e 	call	0x1cda	; 0x1cda <sendDBGString>
     c30:	c8 01       	movw	r24, r16
     c32:	0e 94 78 0e 	call	0x1cf0	; 0x1cf0 <sendDBGLine>
     c36:	f7 01       	movw	r30, r14
     c38:	ee 0f       	add	r30, r30
     c3a:	ff 1f       	adc	r31, r31
     c3c:	ee 0f       	add	r30, r30
     c3e:	ff 1f       	adc	r31, r31
     c40:	e3 54       	subi	r30, 0x43	; 67
     c42:	ff 4d       	sbci	r31, 0xDF	; 223
     c44:	02 80       	ldd	r0, Z+2	; 0x02
     c46:	f3 81       	ldd	r31, Z+3	; 0x03
     c48:	e0 2d       	mov	r30, r0
     c4a:	ce 01       	movw	r24, r28
     c4c:	03 96       	adiw	r24, 0x03	; 3
     c4e:	09 95       	icall
     c50:	12 c0       	rjmp	.+36     	; 0xc76 <processComm+0xbe>
     c52:	ff ef       	ldi	r31, 0xFF	; 255
     c54:	ef 1a       	sub	r14, r31
     c56:	ff 0a       	sbc	r15, r31
     c58:	84 e0       	ldi	r24, 0x04	; 4
     c5a:	c8 0e       	add	r12, r24
     c5c:	d1 1c       	adc	r13, r1
     c5e:	ea e0       	ldi	r30, 0x0A	; 10
     c60:	ee 16       	cp	r14, r30
     c62:	f1 04       	cpc	r15, r1
     c64:	c1 f6       	brne	.-80     	; 0xc16 <processComm+0x5e>
     c66:	8a e8       	ldi	r24, 0x8A	; 138
     c68:	90 e2       	ldi	r25, 0x20	; 32
     c6a:	0e 94 6d 0e 	call	0x1cda	; 0x1cda <sendDBGString>
     c6e:	c5 01       	movw	r24, r10
     c70:	0e 94 78 0e 	call	0x1cf0	; 0x1cf0 <sendDBGLine>
     c74:	c2 de       	rcall	.-636    	; 0x9fa <sendCommNO>
     c76:	cd 5b       	subi	r28, 0xBD	; 189
     c78:	df 4f       	sbci	r29, 0xFF	; 255
     c7a:	cd bf       	out	0x3d, r28	; 61
     c7c:	de bf       	out	0x3e, r29	; 62
     c7e:	df 91       	pop	r29
     c80:	cf 91       	pop	r28
     c82:	1f 91       	pop	r17
     c84:	0f 91       	pop	r16
     c86:	ff 90       	pop	r15
     c88:	ef 90       	pop	r14
     c8a:	df 90       	pop	r13
     c8c:	cf 90       	pop	r12
     c8e:	bf 90       	pop	r11
     c90:	af 90       	pop	r10
     c92:	08 95       	ret

00000c94 <readGlobalHeader>:
     c94:	47 e8       	ldi	r20, 0x87	; 135
     c96:	50 e0       	ldi	r21, 0x00	; 0
     c98:	bc 01       	movw	r22, r24
     c9a:	80 e0       	ldi	r24, 0x00	; 0
     c9c:	90 e0       	ldi	r25, 0x00	; 0
     c9e:	0c 94 ff 12 	jmp	0x25fe	; 0x25fe <nvm_eeprom_read_buffer>

00000ca2 <writeGlobalHeader>:
     ca2:	47 e8       	ldi	r20, 0x87	; 135
     ca4:	50 e0       	ldi	r21, 0x00	; 0
     ca6:	bc 01       	movw	r22, r24
     ca8:	80 e0       	ldi	r24, 0x00	; 0
     caa:	90 e0       	ldi	r25, 0x00	; 0
     cac:	0c 94 9e 13 	jmp	0x273c	; 0x273c <nvm_eeprom_erase_and_write_buffer>

00000cb0 <readControllerConfig>:
     cb0:	20 ec       	ldi	r18, 0xC0	; 192
     cb2:	82 9f       	mul	r24, r18
     cb4:	c0 01       	movw	r24, r0
     cb6:	11 24       	eor	r1, r1
     cb8:	4b ea       	ldi	r20, 0xAB	; 171
     cba:	50 e0       	ldi	r21, 0x00	; 0
     cbc:	80 56       	subi	r24, 0x60	; 96
     cbe:	9f 4f       	sbci	r25, 0xFF	; 255
     cc0:	0c 94 ff 12 	jmp	0x25fe	; 0x25fe <nvm_eeprom_read_buffer>

00000cc4 <writeControllerConfig>:
     cc4:	20 ec       	ldi	r18, 0xC0	; 192
     cc6:	82 9f       	mul	r24, r18
     cc8:	c0 01       	movw	r24, r0
     cca:	11 24       	eor	r1, r1
     ccc:	4b ea       	ldi	r20, 0xAB	; 171
     cce:	50 e0       	ldi	r21, 0x00	; 0
     cd0:	80 56       	subi	r24, 0x60	; 96
     cd2:	9f 4f       	sbci	r25, 0xFF	; 255
     cd4:	0c 94 9e 13 	jmp	0x273c	; 0x273c <nvm_eeprom_erase_and_write_buffer>

00000cd8 <loadConfiguration>:
     cd8:	cf 93       	push	r28
     cda:	c8 2f       	mov	r28, r24
     cdc:	8a 30       	cpi	r24, 0x0A	; 10
     cde:	29 f4       	brne	.+10     	; 0xcea <loadConfiguration+0x12>
     ce0:	85 ee       	ldi	r24, 0xE5	; 229
     ce2:	90 e2       	ldi	r25, 0x20	; 32
     ce4:	0e 94 78 0e 	call	0x1cf0	; 0x1cf0 <sendDBGLine>
     ce8:	bc dc       	rcall	.-1672   	; 0x662 <biosMain>
     cea:	8d ed       	ldi	r24, 0xDD	; 221
     cec:	9b e2       	ldi	r25, 0x2B	; 43
     cee:	d2 df       	rcall	.-92     	; 0xc94 <readGlobalHeader>
     cf0:	80 91 61 2c 	lds	r24, 0x2C61
     cf4:	84 ff       	sbrs	r24, 4
     cf6:	3d c0       	rjmp	.+122    	; 0xd72 <loadConfiguration+0x9a>
     cf8:	60 e4       	ldi	r22, 0x40	; 64
     cfa:	76 e2       	ldi	r23, 0x26	; 38
     cfc:	80 e0       	ldi	r24, 0x00	; 0
     cfe:	e2 df       	rcall	.-60     	; 0xcc4 <writeControllerConfig>
     d00:	6a ee       	ldi	r22, 0xEA	; 234
     d02:	74 e2       	ldi	r23, 0x24	; 36
     d04:	81 e0       	ldi	r24, 0x01	; 1
     d06:	de df       	rcall	.-68     	; 0xcc4 <writeControllerConfig>
     d08:	6c e0       	ldi	r22, 0x0C	; 12
     d0a:	71 e2       	ldi	r23, 0x21	; 33
     d0c:	82 e0       	ldi	r24, 0x02	; 2
     d0e:	da df       	rcall	.-76     	; 0xcc4 <writeControllerConfig>
     d10:	6b ee       	ldi	r22, 0xEB	; 235
     d12:	76 e2       	ldi	r23, 0x26	; 38
     d14:	83 e0       	ldi	r24, 0x03	; 3
     d16:	d6 df       	rcall	.-84     	; 0xcc4 <writeControllerConfig>
     d18:	65 e9       	ldi	r22, 0x95	; 149
     d1a:	75 e2       	ldi	r23, 0x25	; 37
     d1c:	84 e0       	ldi	r24, 0x04	; 4
     d1e:	d2 df       	rcall	.-92     	; 0xcc4 <writeControllerConfig>
     d20:	6e e3       	ldi	r22, 0x3E	; 62
     d22:	72 e2       	ldi	r23, 0x22	; 34
     d24:	85 e0       	ldi	r24, 0x05	; 5
     d26:	ce df       	rcall	.-100    	; 0xcc4 <writeControllerConfig>
     d28:	66 e9       	ldi	r22, 0x96	; 150
     d2a:	77 e2       	ldi	r23, 0x27	; 39
     d2c:	86 e0       	ldi	r24, 0x06	; 6
     d2e:	ca df       	rcall	.-108    	; 0xcc4 <writeControllerConfig>
     d30:	69 ee       	ldi	r22, 0xE9	; 233
     d32:	72 e2       	ldi	r23, 0x22	; 34
     d34:	87 e0       	ldi	r24, 0x07	; 7
     d36:	c6 df       	rcall	.-116    	; 0xcc4 <writeControllerConfig>
     d38:	64 e9       	ldi	r22, 0x94	; 148
     d3a:	73 e2       	ldi	r23, 0x23	; 35
     d3c:	88 e0       	ldi	r24, 0x08	; 8
     d3e:	c2 df       	rcall	.-124    	; 0xcc4 <writeControllerConfig>
     d40:	6f e3       	ldi	r22, 0x3F	; 63
     d42:	74 e2       	ldi	r23, 0x24	; 36
     d44:	89 e0       	ldi	r24, 0x09	; 9
     d46:	be df       	rcall	.-132    	; 0xcc4 <writeControllerConfig>
     d48:	87 e8       	ldi	r24, 0x87	; 135
     d4a:	e7 eb       	ldi	r30, 0xB7	; 183
     d4c:	f1 e2       	ldi	r31, 0x21	; 33
     d4e:	ad ed       	ldi	r26, 0xDD	; 221
     d50:	bb e2       	ldi	r27, 0x2B	; 43
     d52:	01 90       	ld	r0, Z+
     d54:	0d 92       	st	X+, r0
     d56:	8a 95       	dec	r24
     d58:	e1 f7       	brne	.-8      	; 0xd52 <loadConfiguration+0x7a>
     d5a:	80 91 61 2c 	lds	r24, 0x2C61
     d5e:	8f 7e       	andi	r24, 0xEF	; 239
     d60:	80 93 61 2c 	sts	0x2C61, r24
     d64:	8d ed       	ldi	r24, 0xDD	; 221
     d66:	9b e2       	ldi	r25, 0x2B	; 43
     d68:	9c df       	rcall	.-200    	; 0xca2 <writeGlobalHeader>
     d6a:	0e 94 15 1d 	call	0x3a2a	; 0x3a2a <btFactoryReset>
     d6e:	0e 94 fa 1c 	call	0x39f4	; 0x39f4 <btFirstRun>
     d72:	8a ee       	ldi	r24, 0xEA	; 234
     d74:	90 e2       	ldi	r25, 0x20	; 32
     d76:	b1 d7       	rcall	.+3938   	; 0x1cda <sendDBGString>
     d78:	8c 2f       	mov	r24, r28
     d7a:	80 5d       	subi	r24, 0xD0	; 208
     d7c:	a9 d7       	rcall	.+3922   	; 0x1cd0 <sendDBGChar>
     d7e:	82 e8       	ldi	r24, 0x82	; 130
     d80:	98 e2       	ldi	r25, 0x28	; 40
     d82:	ab d7       	rcall	.+3926   	; 0x1cda <sendDBGString>
     d84:	65 e7       	ldi	r22, 0x75	; 117
     d86:	7c e2       	ldi	r23, 0x2C	; 44
     d88:	8c 2f       	mov	r24, r28
     d8a:	cf 91       	pop	r28
     d8c:	91 cf       	rjmp	.-222    	; 0xcb0 <readControllerConfig>

00000d8e <displayWhichConfiguration>:
     d8e:	85 30       	cpi	r24, 0x05	; 5
     d90:	f9 f0       	breq	.+62     	; 0xdd0 <displayWhichConfiguration+0x42>
     d92:	68 f4       	brcc	.+26     	; 0xdae <displayWhichConfiguration+0x20>
     d94:	82 30       	cpi	r24, 0x02	; 2
     d96:	31 f1       	breq	.+76     	; 0xde4 <displayWhichConfiguration+0x56>
     d98:	28 f4       	brcc	.+10     	; 0xda4 <displayWhichConfiguration+0x16>
     d9a:	88 23       	and	r24, r24
     d9c:	c9 f0       	breq	.+50     	; 0xdd0 <displayWhichConfiguration+0x42>
     d9e:	81 30       	cpi	r24, 0x01	; 1
     da0:	81 f5       	brne	.+96     	; 0xe02 <displayWhichConfiguration+0x74>
     da2:	1b c0       	rjmp	.+54     	; 0xdda <displayWhichConfiguration+0x4c>
     da4:	83 30       	cpi	r24, 0x03	; 3
     da6:	19 f1       	breq	.+70     	; 0xdee <displayWhichConfiguration+0x60>
     da8:	84 30       	cpi	r24, 0x04	; 4
     daa:	59 f5       	brne	.+86     	; 0xe02 <displayWhichConfiguration+0x74>
     dac:	25 c0       	rjmp	.+74     	; 0xdf8 <displayWhichConfiguration+0x6a>
     dae:	88 30       	cpi	r24, 0x08	; 8
     db0:	c9 f0       	breq	.+50     	; 0xde4 <displayWhichConfiguration+0x56>
     db2:	28 f4       	brcc	.+10     	; 0xdbe <displayWhichConfiguration+0x30>
     db4:	86 30       	cpi	r24, 0x06	; 6
     db6:	89 f0       	breq	.+34     	; 0xdda <displayWhichConfiguration+0x4c>
     db8:	87 30       	cpi	r24, 0x07	; 7
     dba:	19 f5       	brne	.+70     	; 0xe02 <displayWhichConfiguration+0x74>
     dbc:	18 c0       	rjmp	.+48     	; 0xdee <displayWhichConfiguration+0x60>
     dbe:	89 30       	cpi	r24, 0x09	; 9
     dc0:	d9 f0       	breq	.+54     	; 0xdf8 <displayWhichConfiguration+0x6a>
     dc2:	8a 30       	cpi	r24, 0x0A	; 10
     dc4:	f1 f4       	brne	.+60     	; 0xe02 <displayWhichConfiguration+0x74>
     dc6:	40 e0       	ldi	r20, 0x00	; 0
     dc8:	60 e0       	ldi	r22, 0x00	; 0
     dca:	80 e0       	ldi	r24, 0x00	; 0
     dcc:	0c 94 11 10 	jmp	0x2022	; 0x2022 <setLEDValue>
     dd0:	41 e0       	ldi	r20, 0x01	; 1
     dd2:	60 e0       	ldi	r22, 0x00	; 0
     dd4:	80 e0       	ldi	r24, 0x00	; 0
     dd6:	0c 94 11 10 	jmp	0x2022	; 0x2022 <setLEDValue>
     dda:	40 e0       	ldi	r20, 0x00	; 0
     ddc:	60 e0       	ldi	r22, 0x00	; 0
     dde:	81 e0       	ldi	r24, 0x01	; 1
     de0:	0c 94 11 10 	jmp	0x2022	; 0x2022 <setLEDValue>
     de4:	40 e0       	ldi	r20, 0x00	; 0
     de6:	61 e0       	ldi	r22, 0x01	; 1
     de8:	80 e0       	ldi	r24, 0x00	; 0
     dea:	0c 94 11 10 	jmp	0x2022	; 0x2022 <setLEDValue>
     dee:	40 e0       	ldi	r20, 0x00	; 0
     df0:	61 e0       	ldi	r22, 0x01	; 1
     df2:	81 e0       	ldi	r24, 0x01	; 1
     df4:	0c 94 11 10 	jmp	0x2022	; 0x2022 <setLEDValue>
     df8:	41 e0       	ldi	r20, 0x01	; 1
     dfa:	60 e0       	ldi	r22, 0x00	; 0
     dfc:	81 e0       	ldi	r24, 0x01	; 1
     dfe:	0c 94 11 10 	jmp	0x2022	; 0x2022 <setLEDValue>
     e02:	08 95       	ret

00000e04 <whichConfiguration>:
     e04:	cf 93       	push	r28
     e06:	89 e0       	ldi	r24, 0x09	; 9
     e08:	67 dc       	rcall	.-1842   	; 0x6d8 <buttonActivated>
     e0a:	81 11       	cpse	r24, r1
     e0c:	2b c0       	rjmp	.+86     	; 0xe64 <whichConfiguration+0x60>
     e0e:	84 e0       	ldi	r24, 0x04	; 4
     e10:	63 dc       	rcall	.-1850   	; 0x6d8 <buttonActivated>
     e12:	81 11       	cpse	r24, r1
     e14:	29 c0       	rjmp	.+82     	; 0xe68 <whichConfiguration+0x64>
     e16:	85 e0       	ldi	r24, 0x05	; 5
     e18:	5f dc       	rcall	.-1858   	; 0x6d8 <buttonActivated>
     e1a:	81 11       	cpse	r24, r1
     e1c:	27 c0       	rjmp	.+78     	; 0xe6c <whichConfiguration+0x68>
     e1e:	86 e0       	ldi	r24, 0x06	; 6
     e20:	5b dc       	rcall	.-1866   	; 0x6d8 <buttonActivated>
     e22:	81 11       	cpse	r24, r1
     e24:	25 c0       	rjmp	.+74     	; 0xe70 <whichConfiguration+0x6c>
     e26:	87 e0       	ldi	r24, 0x07	; 7
     e28:	57 dc       	rcall	.-1874   	; 0x6d8 <buttonActivated>
     e2a:	81 11       	cpse	r24, r1
     e2c:	23 c0       	rjmp	.+70     	; 0xe74 <whichConfiguration+0x70>
     e2e:	8a e0       	ldi	r24, 0x0A	; 10
     e30:	53 dc       	rcall	.-1882   	; 0x6d8 <buttonActivated>
     e32:	81 11       	cpse	r24, r1
     e34:	21 c0       	rjmp	.+66     	; 0xe78 <whichConfiguration+0x74>
     e36:	81 e0       	ldi	r24, 0x01	; 1
     e38:	4f dc       	rcall	.-1890   	; 0x6d8 <buttonActivated>
     e3a:	81 11       	cpse	r24, r1
     e3c:	1f c0       	rjmp	.+62     	; 0xe7c <whichConfiguration+0x78>
     e3e:	83 e0       	ldi	r24, 0x03	; 3
     e40:	4b dc       	rcall	.-1898   	; 0x6d8 <buttonActivated>
     e42:	81 11       	cpse	r24, r1
     e44:	1d c0       	rjmp	.+58     	; 0xe80 <whichConfiguration+0x7c>
     e46:	82 e0       	ldi	r24, 0x02	; 2
     e48:	47 dc       	rcall	.-1906   	; 0x6d8 <buttonActivated>
     e4a:	81 11       	cpse	r24, r1
     e4c:	1b c0       	rjmp	.+54     	; 0xe84 <whichConfiguration+0x80>
     e4e:	44 dc       	rcall	.-1912   	; 0x6d8 <buttonActivated>
     e50:	81 11       	cpse	r24, r1
     e52:	1a c0       	rjmp	.+52     	; 0xe88 <whichConfiguration+0x84>
     e54:	8b e0       	ldi	r24, 0x0B	; 11
     e56:	40 dc       	rcall	.-1920   	; 0x6d8 <buttonActivated>
     e58:	81 11       	cpse	r24, r1
     e5a:	18 c0       	rjmp	.+48     	; 0xe8c <whichConfiguration+0x88>
     e5c:	c0 91 61 2c 	lds	r28, 0x2C61
     e60:	cf 70       	andi	r28, 0x0F	; 15
     e62:	15 c0       	rjmp	.+42     	; 0xe8e <whichConfiguration+0x8a>
     e64:	ca e0       	ldi	r28, 0x0A	; 10
     e66:	13 c0       	rjmp	.+38     	; 0xe8e <whichConfiguration+0x8a>
     e68:	c0 e0       	ldi	r28, 0x00	; 0
     e6a:	11 c0       	rjmp	.+34     	; 0xe8e <whichConfiguration+0x8a>
     e6c:	c1 e0       	ldi	r28, 0x01	; 1
     e6e:	0f c0       	rjmp	.+30     	; 0xe8e <whichConfiguration+0x8a>
     e70:	c2 e0       	ldi	r28, 0x02	; 2
     e72:	0d c0       	rjmp	.+26     	; 0xe8e <whichConfiguration+0x8a>
     e74:	c3 e0       	ldi	r28, 0x03	; 3
     e76:	0b c0       	rjmp	.+22     	; 0xe8e <whichConfiguration+0x8a>
     e78:	c4 e0       	ldi	r28, 0x04	; 4
     e7a:	09 c0       	rjmp	.+18     	; 0xe8e <whichConfiguration+0x8a>
     e7c:	c5 e0       	ldi	r28, 0x05	; 5
     e7e:	07 c0       	rjmp	.+14     	; 0xe8e <whichConfiguration+0x8a>
     e80:	c6 e0       	ldi	r28, 0x06	; 6
     e82:	05 c0       	rjmp	.+10     	; 0xe8e <whichConfiguration+0x8a>
     e84:	c8 e0       	ldi	r28, 0x08	; 8
     e86:	03 c0       	rjmp	.+6      	; 0xe8e <whichConfiguration+0x8a>
     e88:	c7 e0       	ldi	r28, 0x07	; 7
     e8a:	01 c0       	rjmp	.+2      	; 0xe8e <whichConfiguration+0x8a>
     e8c:	c9 e0       	ldi	r28, 0x09	; 9
     e8e:	8c 2f       	mov	r24, r28
     e90:	7e df       	rcall	.-260    	; 0xd8e <displayWhichConfiguration>
     e92:	8c 2f       	mov	r24, r28
     e94:	cf 91       	pop	r28
     e96:	08 95       	ret

00000e98 <gamepadInit>:
     e98:	80 93 cf 2a 	sts	0x2ACF, r24
     e9c:	90 93 d0 2a 	sts	0x2AD0, r25
     ea0:	0c 94 3d 1d 	jmp	0x3a7a	; 0x3a7a <BluetoothGamePadMode>

00000ea4 <gamepadReport>:
     ea4:	80 91 d1 2a 	lds	r24, 0x2AD1
     ea8:	90 91 d2 2a 	lds	r25, 0x2AD2
     eac:	a0 91 d3 2a 	lds	r26, 0x2AD3
     eb0:	b0 91 d4 2a 	lds	r27, 0x2AD4
     eb4:	40 91 d9 2a 	lds	r20, 0x2AD9
     eb8:	50 91 da 2a 	lds	r21, 0x2ADA
     ebc:	60 91 db 2a 	lds	r22, 0x2ADB
     ec0:	70 91 dc 2a 	lds	r23, 0x2ADC
     ec4:	84 17       	cp	r24, r20
     ec6:	95 07       	cpc	r25, r21
     ec8:	a6 07       	cpc	r26, r22
     eca:	b7 07       	cpc	r27, r23
     ecc:	c1 f4       	brne	.+48     	; 0xefe <gamepadReport+0x5a>
     ece:	30 91 d5 2a 	lds	r19, 0x2AD5
     ed2:	20 91 dd 2a 	lds	r18, 0x2ADD
     ed6:	32 13       	cpse	r19, r18
     ed8:	12 c0       	rjmp	.+36     	; 0xefe <gamepadReport+0x5a>
     eda:	30 91 d6 2a 	lds	r19, 0x2AD6
     ede:	20 91 de 2a 	lds	r18, 0x2ADE
     ee2:	32 13       	cpse	r19, r18
     ee4:	0c c0       	rjmp	.+24     	; 0xefe <gamepadReport+0x5a>
     ee6:	30 91 d7 2a 	lds	r19, 0x2AD7
     eea:	20 91 df 2a 	lds	r18, 0x2ADF
     eee:	32 13       	cpse	r19, r18
     ef0:	06 c0       	rjmp	.+12     	; 0xefe <gamepadReport+0x5a>
     ef2:	30 91 d8 2a 	lds	r19, 0x2AD8
     ef6:	20 91 e0 2a 	lds	r18, 0x2AE0
     efa:	32 17       	cp	r19, r18
     efc:	e1 f1       	breq	.+120    	; 0xf76 <gamepadReport+0xd2>
     efe:	40 91 d5 2a 	lds	r20, 0x2AD5
     f02:	50 91 d6 2a 	lds	r21, 0x2AD6
     f06:	60 91 d7 2a 	lds	r22, 0x2AD7
     f0a:	70 91 d8 2a 	lds	r23, 0x2AD8
     f0e:	40 93 dd 2a 	sts	0x2ADD, r20
     f12:	50 93 de 2a 	sts	0x2ADE, r21
     f16:	60 93 df 2a 	sts	0x2ADF, r22
     f1a:	70 93 e0 2a 	sts	0x2AE0, r23
     f1e:	80 93 d9 2a 	sts	0x2AD9, r24
     f22:	90 93 da 2a 	sts	0x2ADA, r25
     f26:	a0 93 db 2a 	sts	0x2ADB, r26
     f2a:	b0 93 dc 2a 	sts	0x2ADC, r27
     f2e:	81 ea       	ldi	r24, 0xA1	; 161
     f30:	0e 94 9f 1c 	call	0x393e	; 0x393e <sendBTChar>
     f34:	84 e0       	ldi	r24, 0x04	; 4
     f36:	0e 94 9f 1c 	call	0x393e	; 0x393e <sendBTChar>
     f3a:	80 e0       	ldi	r24, 0x00	; 0
     f3c:	0e 94 9f 1c 	call	0x393e	; 0x393e <sendBTChar>
     f40:	80 91 d5 2a 	lds	r24, 0x2AD5
     f44:	0e 94 9f 1c 	call	0x393e	; 0x393e <sendBTChar>
     f48:	80 91 d6 2a 	lds	r24, 0x2AD6
     f4c:	0e 94 9f 1c 	call	0x393e	; 0x393e <sendBTChar>
     f50:	80 91 d7 2a 	lds	r24, 0x2AD7
     f54:	0e 94 9f 1c 	call	0x393e	; 0x393e <sendBTChar>
     f58:	80 91 d8 2a 	lds	r24, 0x2AD8
     f5c:	0e 94 9f 1c 	call	0x393e	; 0x393e <sendBTChar>
     f60:	88 e0       	ldi	r24, 0x08	; 8
     f62:	0e 94 9f 1c 	call	0x393e	; 0x393e <sendBTChar>
     f66:	80 91 d1 2a 	lds	r24, 0x2AD1
     f6a:	0e 94 9f 1c 	call	0x393e	; 0x393e <sendBTChar>
     f6e:	80 91 d2 2a 	lds	r24, 0x2AD2
     f72:	0c 94 9f 1c 	jmp	0x393e	; 0x393e <sendBTChar>
     f76:	08 95       	ret

00000f78 <gamepadJoystickHandler>:
     f78:	9e e0       	ldi	r25, 0x0E	; 14
     f7a:	89 9f       	mul	r24, r25
     f7c:	d0 01       	movw	r26, r0
     f7e:	11 24       	eor	r1, r1
     f80:	a8 5c       	subi	r26, 0xC8	; 200
     f82:	bf 4d       	sbci	r27, 0xDF	; 223
     f84:	28 2f       	mov	r18, r24
     f86:	30 e0       	ldi	r19, 0x00	; 0
     f88:	e6 e1       	ldi	r30, 0x16	; 22
     f8a:	8e 9f       	mul	r24, r30
     f8c:	c0 01       	movw	r24, r0
     f8e:	11 24       	eor	r1, r1
     f90:	81 58       	subi	r24, 0x81	; 129
     f92:	9f 4f       	sbci	r25, 0xFF	; 255
     f94:	e0 91 cf 2a 	lds	r30, 0x2ACF
     f98:	f0 91 d0 2a 	lds	r31, 0x2AD0
     f9c:	e8 0f       	add	r30, r24
     f9e:	f9 1f       	adc	r31, r25
     fa0:	12 96       	adiw	r26, 0x02	; 2
     fa2:	8d 91       	ld	r24, X+
     fa4:	9c 91       	ld	r25, X
     fa6:	13 97       	sbiw	r26, 0x03	; 3
     fa8:	68 1b       	sub	r22, r24
     faa:	79 0b       	sbc	r23, r25
     fac:	14 96       	adiw	r26, 0x04	; 4
     fae:	8d 91       	ld	r24, X+
     fb0:	9c 91       	ld	r25, X
     fb2:	15 97       	sbiw	r26, 0x05	; 5
     fb4:	48 1b       	sub	r20, r24
     fb6:	59 0b       	sbc	r21, r25
     fb8:	82 89       	ldd	r24, Z+18	; 0x12
     fba:	93 89       	ldd	r25, Z+19	; 0x13
     fbc:	86 17       	cp	r24, r22
     fbe:	97 07       	cpc	r25, r23
     fc0:	1c f4       	brge	.+6      	; 0xfc8 <gamepadJoystickHandler+0x50>
     fc2:	68 1b       	sub	r22, r24
     fc4:	79 0b       	sbc	r23, r25
     fc6:	0c c0       	rjmp	.+24     	; 0xfe0 <gamepadJoystickHandler+0x68>
     fc8:	aa 27       	eor	r26, r26
     fca:	bb 27       	eor	r27, r27
     fcc:	a8 1b       	sub	r26, r24
     fce:	b9 0b       	sbc	r27, r25
     fd0:	6a 17       	cp	r22, r26
     fd2:	7b 07       	cpc	r23, r27
     fd4:	1c f4       	brge	.+6      	; 0xfdc <gamepadJoystickHandler+0x64>
     fd6:	68 0f       	add	r22, r24
     fd8:	79 1f       	adc	r23, r25
     fda:	02 c0       	rjmp	.+4      	; 0xfe0 <gamepadJoystickHandler+0x68>
     fdc:	60 e0       	ldi	r22, 0x00	; 0
     fde:	70 e0       	ldi	r23, 0x00	; 0
     fe0:	84 89       	ldd	r24, Z+20	; 0x14
     fe2:	95 89       	ldd	r25, Z+21	; 0x15
     fe4:	84 17       	cp	r24, r20
     fe6:	95 07       	cpc	r25, r21
     fe8:	1c f4       	brge	.+6      	; 0xff0 <gamepadJoystickHandler+0x78>
     fea:	48 1b       	sub	r20, r24
     fec:	59 0b       	sbc	r21, r25
     fee:	0c c0       	rjmp	.+24     	; 0x1008 <gamepadJoystickHandler+0x90>
     ff0:	ee 27       	eor	r30, r30
     ff2:	ff 27       	eor	r31, r31
     ff4:	e8 1b       	sub	r30, r24
     ff6:	f9 0b       	sbc	r31, r25
     ff8:	4e 17       	cp	r20, r30
     ffa:	5f 07       	cpc	r21, r31
     ffc:	1c f4       	brge	.+6      	; 0x1004 <gamepadJoystickHandler+0x8c>
     ffe:	48 0f       	add	r20, r24
    1000:	59 1f       	adc	r21, r25
    1002:	02 c0       	rjmp	.+4      	; 0x1008 <gamepadJoystickHandler+0x90>
    1004:	40 e0       	ldi	r20, 0x00	; 0
    1006:	50 e0       	ldi	r21, 0x00	; 0
    1008:	61 38       	cpi	r22, 0x81	; 129
    100a:	8f ef       	ldi	r24, 0xFF	; 255
    100c:	78 07       	cpc	r23, r24
    100e:	14 f4       	brge	.+4      	; 0x1014 <gamepadJoystickHandler+0x9c>
    1010:	61 e8       	ldi	r22, 0x81	; 129
    1012:	7f ef       	ldi	r23, 0xFF	; 255
    1014:	41 38       	cpi	r20, 0x81	; 129
    1016:	9f ef       	ldi	r25, 0xFF	; 255
    1018:	59 07       	cpc	r21, r25
    101a:	14 f4       	brge	.+4      	; 0x1020 <gamepadJoystickHandler+0xa8>
    101c:	41 e8       	ldi	r20, 0x81	; 129
    101e:	5f ef       	ldi	r21, 0xFF	; 255
    1020:	22 0f       	add	r18, r18
    1022:	33 1f       	adc	r19, r19
    1024:	f9 01       	movw	r30, r18
    1026:	eb 52       	subi	r30, 0x2B	; 43
    1028:	f5 4d       	sbci	r31, 0xD5	; 213
    102a:	60 38       	cpi	r22, 0x80	; 128
    102c:	71 05       	cpc	r23, r1
    102e:	14 f0       	brlt	.+4      	; 0x1034 <gamepadJoystickHandler+0xbc>
    1030:	6f e7       	ldi	r22, 0x7F	; 127
    1032:	70 e0       	ldi	r23, 0x00	; 0
    1034:	60 83       	st	Z, r22
    1036:	f9 01       	movw	r30, r18
    1038:	ea 52       	subi	r30, 0x2A	; 42
    103a:	f5 4d       	sbci	r31, 0xD5	; 213
    103c:	40 38       	cpi	r20, 0x80	; 128
    103e:	51 05       	cpc	r21, r1
    1040:	14 f0       	brlt	.+4      	; 0x1046 <gamepadJoystickHandler+0xce>
    1042:	4f e7       	ldi	r20, 0x7F	; 127
    1044:	50 e0       	ldi	r21, 0x00	; 0
    1046:	40 83       	st	Z, r20
    1048:	2d cf       	rjmp	.-422    	; 0xea4 <gamepadReport>

0000104a <gamepadButtonHandler>:
    104a:	61 30       	cpi	r22, 0x01	; 1
    104c:	01 f5       	brne	.+64     	; 0x108e <gamepadButtonHandler+0x44>
    104e:	41 e0       	ldi	r20, 0x01	; 1
    1050:	50 e0       	ldi	r21, 0x00	; 0
    1052:	60 e0       	ldi	r22, 0x00	; 0
    1054:	70 e0       	ldi	r23, 0x00	; 0
    1056:	04 c0       	rjmp	.+8      	; 0x1060 <gamepadButtonHandler+0x16>
    1058:	44 0f       	add	r20, r20
    105a:	55 1f       	adc	r21, r21
    105c:	66 1f       	adc	r22, r22
    105e:	77 1f       	adc	r23, r23
    1060:	8a 95       	dec	r24
    1062:	d2 f7       	brpl	.-12     	; 0x1058 <gamepadButtonHandler+0xe>
    1064:	80 91 d1 2a 	lds	r24, 0x2AD1
    1068:	90 91 d2 2a 	lds	r25, 0x2AD2
    106c:	a0 91 d3 2a 	lds	r26, 0x2AD3
    1070:	b0 91 d4 2a 	lds	r27, 0x2AD4
    1074:	84 2b       	or	r24, r20
    1076:	95 2b       	or	r25, r21
    1078:	a6 2b       	or	r26, r22
    107a:	b7 2b       	or	r27, r23
    107c:	80 93 d1 2a 	sts	0x2AD1, r24
    1080:	90 93 d2 2a 	sts	0x2AD2, r25
    1084:	a0 93 d3 2a 	sts	0x2AD3, r26
    1088:	b0 93 d4 2a 	sts	0x2AD4, r27
    108c:	25 c0       	rjmp	.+74     	; 0x10d8 <gamepadButtonHandler+0x8e>
    108e:	61 11       	cpse	r22, r1
    1090:	23 c0       	rjmp	.+70     	; 0x10d8 <gamepadButtonHandler+0x8e>
    1092:	41 e0       	ldi	r20, 0x01	; 1
    1094:	50 e0       	ldi	r21, 0x00	; 0
    1096:	60 e0       	ldi	r22, 0x00	; 0
    1098:	70 e0       	ldi	r23, 0x00	; 0
    109a:	04 c0       	rjmp	.+8      	; 0x10a4 <gamepadButtonHandler+0x5a>
    109c:	44 0f       	add	r20, r20
    109e:	55 1f       	adc	r21, r21
    10a0:	66 1f       	adc	r22, r22
    10a2:	77 1f       	adc	r23, r23
    10a4:	8a 95       	dec	r24
    10a6:	d2 f7       	brpl	.-12     	; 0x109c <gamepadButtonHandler+0x52>
    10a8:	40 95       	com	r20
    10aa:	50 95       	com	r21
    10ac:	60 95       	com	r22
    10ae:	70 95       	com	r23
    10b0:	80 91 d1 2a 	lds	r24, 0x2AD1
    10b4:	90 91 d2 2a 	lds	r25, 0x2AD2
    10b8:	a0 91 d3 2a 	lds	r26, 0x2AD3
    10bc:	b0 91 d4 2a 	lds	r27, 0x2AD4
    10c0:	84 23       	and	r24, r20
    10c2:	95 23       	and	r25, r21
    10c4:	a6 23       	and	r26, r22
    10c6:	b7 23       	and	r27, r23
    10c8:	80 93 d1 2a 	sts	0x2AD1, r24
    10cc:	90 93 d2 2a 	sts	0x2AD2, r25
    10d0:	a0 93 d3 2a 	sts	0x2AD3, r26
    10d4:	b0 93 d4 2a 	sts	0x2AD4, r27
    10d8:	e5 ce       	rjmp	.-566    	; 0xea4 <gamepadReport>

000010da <jStickInit>:
    10da:	80 93 e1 2a 	sts	0x2AE1, r24
    10de:	90 93 e2 2a 	sts	0x2AE2, r25
    10e2:	81 e0       	ldi	r24, 0x01	; 1
    10e4:	91 e2       	ldi	r25, 0x21	; 33
    10e6:	04 d6       	rcall	.+3080   	; 0x1cf0 <sendDBGLine>
    10e8:	0c 94 40 1d 	jmp	0x3a80	; 0x3a80 <BluetoothJoystickMode>

000010ec <jStickReport>:
    10ec:	80 91 e3 2a 	lds	r24, 0x2AE3
    10f0:	90 91 e4 2a 	lds	r25, 0x2AE4
    10f4:	a0 91 e5 2a 	lds	r26, 0x2AE5
    10f8:	b0 91 e6 2a 	lds	r27, 0x2AE6
    10fc:	40 91 eb 2a 	lds	r20, 0x2AEB
    1100:	50 91 ec 2a 	lds	r21, 0x2AEC
    1104:	60 91 ed 2a 	lds	r22, 0x2AED
    1108:	70 91 ee 2a 	lds	r23, 0x2AEE
    110c:	84 17       	cp	r24, r20
    110e:	95 07       	cpc	r25, r21
    1110:	a6 07       	cpc	r26, r22
    1112:	b7 07       	cpc	r27, r23
    1114:	c1 f4       	brne	.+48     	; 0x1146 <jStickReport+0x5a>
    1116:	30 91 e7 2a 	lds	r19, 0x2AE7
    111a:	20 91 ef 2a 	lds	r18, 0x2AEF
    111e:	32 13       	cpse	r19, r18
    1120:	12 c0       	rjmp	.+36     	; 0x1146 <jStickReport+0x5a>
    1122:	30 91 e8 2a 	lds	r19, 0x2AE8
    1126:	20 91 f0 2a 	lds	r18, 0x2AF0
    112a:	32 13       	cpse	r19, r18
    112c:	0c c0       	rjmp	.+24     	; 0x1146 <jStickReport+0x5a>
    112e:	30 91 e9 2a 	lds	r19, 0x2AE9
    1132:	20 91 f1 2a 	lds	r18, 0x2AF1
    1136:	32 13       	cpse	r19, r18
    1138:	06 c0       	rjmp	.+12     	; 0x1146 <jStickReport+0x5a>
    113a:	30 91 ea 2a 	lds	r19, 0x2AEA
    113e:	20 91 f2 2a 	lds	r18, 0x2AF2
    1142:	32 17       	cp	r19, r18
    1144:	e1 f1       	breq	.+120    	; 0x11be <jStickReport+0xd2>
    1146:	40 91 e7 2a 	lds	r20, 0x2AE7
    114a:	50 91 e8 2a 	lds	r21, 0x2AE8
    114e:	60 91 e9 2a 	lds	r22, 0x2AE9
    1152:	70 91 ea 2a 	lds	r23, 0x2AEA
    1156:	40 93 ef 2a 	sts	0x2AEF, r20
    115a:	50 93 f0 2a 	sts	0x2AF0, r21
    115e:	60 93 f1 2a 	sts	0x2AF1, r22
    1162:	70 93 f2 2a 	sts	0x2AF2, r23
    1166:	80 93 eb 2a 	sts	0x2AEB, r24
    116a:	90 93 ec 2a 	sts	0x2AEC, r25
    116e:	a0 93 ed 2a 	sts	0x2AED, r26
    1172:	b0 93 ee 2a 	sts	0x2AEE, r27
    1176:	81 ea       	ldi	r24, 0xA1	; 161
    1178:	0e 94 9f 1c 	call	0x393e	; 0x393e <sendBTChar>
    117c:	84 e0       	ldi	r24, 0x04	; 4
    117e:	0e 94 9f 1c 	call	0x393e	; 0x393e <sendBTChar>
    1182:	80 e0       	ldi	r24, 0x00	; 0
    1184:	0e 94 9f 1c 	call	0x393e	; 0x393e <sendBTChar>
    1188:	80 91 e7 2a 	lds	r24, 0x2AE7
    118c:	0e 94 9f 1c 	call	0x393e	; 0x393e <sendBTChar>
    1190:	80 91 e8 2a 	lds	r24, 0x2AE8
    1194:	0e 94 9f 1c 	call	0x393e	; 0x393e <sendBTChar>
    1198:	80 91 e9 2a 	lds	r24, 0x2AE9
    119c:	0e 94 9f 1c 	call	0x393e	; 0x393e <sendBTChar>
    11a0:	80 91 ea 2a 	lds	r24, 0x2AEA
    11a4:	0e 94 9f 1c 	call	0x393e	; 0x393e <sendBTChar>
    11a8:	88 e0       	ldi	r24, 0x08	; 8
    11aa:	0e 94 9f 1c 	call	0x393e	; 0x393e <sendBTChar>
    11ae:	80 91 e3 2a 	lds	r24, 0x2AE3
    11b2:	0e 94 9f 1c 	call	0x393e	; 0x393e <sendBTChar>
    11b6:	80 91 e4 2a 	lds	r24, 0x2AE4
    11ba:	0c 94 9f 1c 	jmp	0x393e	; 0x393e <sendBTChar>
    11be:	08 95       	ret

000011c0 <jStickJoystickHandler>:
    11c0:	cf 93       	push	r28
    11c2:	df 93       	push	r29
    11c4:	2e e0       	ldi	r18, 0x0E	; 14
    11c6:	82 9f       	mul	r24, r18
    11c8:	e0 01       	movw	r28, r0
    11ca:	11 24       	eor	r1, r1
    11cc:	c8 5c       	subi	r28, 0xC8	; 200
    11ce:	df 4d       	sbci	r29, 0xDF	; 223
    11d0:	a8 2f       	mov	r26, r24
    11d2:	b0 e0       	ldi	r27, 0x00	; 0
    11d4:	26 e1       	ldi	r18, 0x16	; 22
    11d6:	82 9f       	mul	r24, r18
    11d8:	c0 01       	movw	r24, r0
    11da:	11 24       	eor	r1, r1
    11dc:	81 58       	subi	r24, 0x81	; 129
    11de:	9f 4f       	sbci	r25, 0xFF	; 255
    11e0:	e0 91 e1 2a 	lds	r30, 0x2AE1
    11e4:	f0 91 e2 2a 	lds	r31, 0x2AE2
    11e8:	e8 0f       	add	r30, r24
    11ea:	f9 1f       	adc	r31, r25
    11ec:	8a 81       	ldd	r24, Y+2	; 0x02
    11ee:	9b 81       	ldd	r25, Y+3	; 0x03
    11f0:	68 1b       	sub	r22, r24
    11f2:	79 0b       	sbc	r23, r25
    11f4:	8c 81       	ldd	r24, Y+4	; 0x04
    11f6:	9d 81       	ldd	r25, Y+5	; 0x05
    11f8:	48 1b       	sub	r20, r24
    11fa:	59 0b       	sbc	r21, r25
    11fc:	82 89       	ldd	r24, Z+18	; 0x12
    11fe:	93 89       	ldd	r25, Z+19	; 0x13
    1200:	86 17       	cp	r24, r22
    1202:	97 07       	cpc	r25, r23
    1204:	1c f4       	brge	.+6      	; 0x120c <jStickJoystickHandler+0x4c>
    1206:	68 1b       	sub	r22, r24
    1208:	79 0b       	sbc	r23, r25
    120a:	0c c0       	rjmp	.+24     	; 0x1224 <jStickJoystickHandler+0x64>
    120c:	22 27       	eor	r18, r18
    120e:	33 27       	eor	r19, r19
    1210:	28 1b       	sub	r18, r24
    1212:	39 0b       	sbc	r19, r25
    1214:	62 17       	cp	r22, r18
    1216:	73 07       	cpc	r23, r19
    1218:	1c f4       	brge	.+6      	; 0x1220 <jStickJoystickHandler+0x60>
    121a:	68 0f       	add	r22, r24
    121c:	79 1f       	adc	r23, r25
    121e:	02 c0       	rjmp	.+4      	; 0x1224 <jStickJoystickHandler+0x64>
    1220:	60 e0       	ldi	r22, 0x00	; 0
    1222:	70 e0       	ldi	r23, 0x00	; 0
    1224:	84 89       	ldd	r24, Z+20	; 0x14
    1226:	95 89       	ldd	r25, Z+21	; 0x15
    1228:	84 17       	cp	r24, r20
    122a:	95 07       	cpc	r25, r21
    122c:	1c f4       	brge	.+6      	; 0x1234 <jStickJoystickHandler+0x74>
    122e:	48 1b       	sub	r20, r24
    1230:	59 0b       	sbc	r21, r25
    1232:	0c c0       	rjmp	.+24     	; 0x124c <jStickJoystickHandler+0x8c>
    1234:	22 27       	eor	r18, r18
    1236:	33 27       	eor	r19, r19
    1238:	28 1b       	sub	r18, r24
    123a:	39 0b       	sbc	r19, r25
    123c:	42 17       	cp	r20, r18
    123e:	53 07       	cpc	r21, r19
    1240:	1c f4       	brge	.+6      	; 0x1248 <jStickJoystickHandler+0x88>
    1242:	48 0f       	add	r20, r24
    1244:	59 1f       	adc	r21, r25
    1246:	02 c0       	rjmp	.+4      	; 0x124c <jStickJoystickHandler+0x8c>
    1248:	40 e0       	ldi	r20, 0x00	; 0
    124a:	50 e0       	ldi	r21, 0x00	; 0
    124c:	77 ff       	sbrs	r23, 7
    124e:	02 c0       	rjmp	.+4      	; 0x1254 <jStickJoystickHandler+0x94>
    1250:	61 5f       	subi	r22, 0xF1	; 241
    1252:	7f 4f       	sbci	r23, 0xFF	; 255
    1254:	e4 e0       	ldi	r30, 0x04	; 4
    1256:	75 95       	asr	r23
    1258:	67 95       	ror	r22
    125a:	ea 95       	dec	r30
    125c:	e1 f7       	brne	.-8      	; 0x1256 <jStickJoystickHandler+0x96>
    125e:	96 2f       	mov	r25, r22
    1260:	87 2f       	mov	r24, r23
    1262:	57 ff       	sbrs	r21, 7
    1264:	02 c0       	rjmp	.+4      	; 0x126a <jStickJoystickHandler+0xaa>
    1266:	41 5f       	subi	r20, 0xF1	; 241
    1268:	5f 4f       	sbci	r21, 0xFF	; 255
    126a:	64 e0       	ldi	r22, 0x04	; 4
    126c:	55 95       	asr	r21
    126e:	47 95       	ror	r20
    1270:	6a 95       	dec	r22
    1272:	e1 f7       	brne	.-8      	; 0x126c <jStickJoystickHandler+0xac>
    1274:	64 2f       	mov	r22, r20
    1276:	45 2f       	mov	r20, r21
    1278:	29 2f       	mov	r18, r25
    127a:	38 2f       	mov	r19, r24
    127c:	21 38       	cpi	r18, 0x81	; 129
    127e:	8f ef       	ldi	r24, 0xFF	; 255
    1280:	38 07       	cpc	r19, r24
    1282:	14 f4       	brge	.+4      	; 0x1288 <jStickJoystickHandler+0xc8>
    1284:	21 e8       	ldi	r18, 0x81	; 129
    1286:	3f ef       	ldi	r19, 0xFF	; 255
    1288:	86 2f       	mov	r24, r22
    128a:	94 2f       	mov	r25, r20
    128c:	81 38       	cpi	r24, 0x81	; 129
    128e:	4f ef       	ldi	r20, 0xFF	; 255
    1290:	94 07       	cpc	r25, r20
    1292:	14 f4       	brge	.+4      	; 0x1298 <jStickJoystickHandler+0xd8>
    1294:	81 e8       	ldi	r24, 0x81	; 129
    1296:	9f ef       	ldi	r25, 0xFF	; 255
    1298:	aa 0f       	add	r26, r26
    129a:	bb 1f       	adc	r27, r27
    129c:	fd 01       	movw	r30, r26
    129e:	e9 51       	subi	r30, 0x19	; 25
    12a0:	f5 4d       	sbci	r31, 0xD5	; 213
    12a2:	20 38       	cpi	r18, 0x80	; 128
    12a4:	31 05       	cpc	r19, r1
    12a6:	14 f0       	brlt	.+4      	; 0x12ac <jStickJoystickHandler+0xec>
    12a8:	2f e7       	ldi	r18, 0x7F	; 127
    12aa:	30 e0       	ldi	r19, 0x00	; 0
    12ac:	20 83       	st	Z, r18
    12ae:	a8 51       	subi	r26, 0x18	; 24
    12b0:	b5 4d       	sbci	r27, 0xD5	; 213
    12b2:	80 38       	cpi	r24, 0x80	; 128
    12b4:	91 05       	cpc	r25, r1
    12b6:	14 f0       	brlt	.+4      	; 0x12bc <jStickJoystickHandler+0xfc>
    12b8:	8f e7       	ldi	r24, 0x7F	; 127
    12ba:	90 e0       	ldi	r25, 0x00	; 0
    12bc:	8c 93       	st	X, r24
    12be:	df 91       	pop	r29
    12c0:	cf 91       	pop	r28
    12c2:	14 cf       	rjmp	.-472    	; 0x10ec <jStickReport>

000012c4 <jStickButtonHandler>:
    12c4:	61 30       	cpi	r22, 0x01	; 1
    12c6:	01 f5       	brne	.+64     	; 0x1308 <jStickButtonHandler+0x44>
    12c8:	41 e0       	ldi	r20, 0x01	; 1
    12ca:	50 e0       	ldi	r21, 0x00	; 0
    12cc:	60 e0       	ldi	r22, 0x00	; 0
    12ce:	70 e0       	ldi	r23, 0x00	; 0
    12d0:	04 c0       	rjmp	.+8      	; 0x12da <jStickButtonHandler+0x16>
    12d2:	44 0f       	add	r20, r20
    12d4:	55 1f       	adc	r21, r21
    12d6:	66 1f       	adc	r22, r22
    12d8:	77 1f       	adc	r23, r23
    12da:	8a 95       	dec	r24
    12dc:	d2 f7       	brpl	.-12     	; 0x12d2 <jStickButtonHandler+0xe>
    12de:	80 91 e3 2a 	lds	r24, 0x2AE3
    12e2:	90 91 e4 2a 	lds	r25, 0x2AE4
    12e6:	a0 91 e5 2a 	lds	r26, 0x2AE5
    12ea:	b0 91 e6 2a 	lds	r27, 0x2AE6
    12ee:	84 2b       	or	r24, r20
    12f0:	95 2b       	or	r25, r21
    12f2:	a6 2b       	or	r26, r22
    12f4:	b7 2b       	or	r27, r23
    12f6:	80 93 e3 2a 	sts	0x2AE3, r24
    12fa:	90 93 e4 2a 	sts	0x2AE4, r25
    12fe:	a0 93 e5 2a 	sts	0x2AE5, r26
    1302:	b0 93 e6 2a 	sts	0x2AE6, r27
    1306:	25 c0       	rjmp	.+74     	; 0x1352 <jStickButtonHandler+0x8e>
    1308:	61 11       	cpse	r22, r1
    130a:	23 c0       	rjmp	.+70     	; 0x1352 <jStickButtonHandler+0x8e>
    130c:	41 e0       	ldi	r20, 0x01	; 1
    130e:	50 e0       	ldi	r21, 0x00	; 0
    1310:	60 e0       	ldi	r22, 0x00	; 0
    1312:	70 e0       	ldi	r23, 0x00	; 0
    1314:	04 c0       	rjmp	.+8      	; 0x131e <jStickButtonHandler+0x5a>
    1316:	44 0f       	add	r20, r20
    1318:	55 1f       	adc	r21, r21
    131a:	66 1f       	adc	r22, r22
    131c:	77 1f       	adc	r23, r23
    131e:	8a 95       	dec	r24
    1320:	d2 f7       	brpl	.-12     	; 0x1316 <jStickButtonHandler+0x52>
    1322:	40 95       	com	r20
    1324:	50 95       	com	r21
    1326:	60 95       	com	r22
    1328:	70 95       	com	r23
    132a:	80 91 e3 2a 	lds	r24, 0x2AE3
    132e:	90 91 e4 2a 	lds	r25, 0x2AE4
    1332:	a0 91 e5 2a 	lds	r26, 0x2AE5
    1336:	b0 91 e6 2a 	lds	r27, 0x2AE6
    133a:	84 23       	and	r24, r20
    133c:	95 23       	and	r25, r21
    133e:	a6 23       	and	r26, r22
    1340:	b7 23       	and	r27, r23
    1342:	80 93 e3 2a 	sts	0x2AE3, r24
    1346:	90 93 e4 2a 	sts	0x2AE4, r25
    134a:	a0 93 e5 2a 	sts	0x2AE5, r26
    134e:	b0 93 e6 2a 	sts	0x2AE6, r27
    1352:	cc ce       	rjmp	.-616    	; 0x10ec <jStickReport>

00001354 <keyboardInit>:
    1354:	80 93 f3 2a 	sts	0x2AF3, r24
    1358:	90 93 f4 2a 	sts	0x2AF4, r25
    135c:	0c 94 37 1d 	jmp	0x3a6e	; 0x3a6e <BluetoothKeyboardMode>

00001360 <changeButtonPressState>:
    1360:	2f 92       	push	r2
    1362:	3f 92       	push	r3
    1364:	4f 92       	push	r4
    1366:	5f 92       	push	r5
    1368:	6f 92       	push	r6
    136a:	7f 92       	push	r7
    136c:	8f 92       	push	r8
    136e:	9f 92       	push	r9
    1370:	af 92       	push	r10
    1372:	bf 92       	push	r11
    1374:	cf 92       	push	r12
    1376:	df 92       	push	r13
    1378:	ef 92       	push	r14
    137a:	ff 92       	push	r15
    137c:	0f 93       	push	r16
    137e:	1f 93       	push	r17
    1380:	cf 93       	push	r28
    1382:	df 93       	push	r29
    1384:	cd b7       	in	r28, 0x3d	; 61
    1386:	de b7       	in	r29, 0x3e	; 62
    1388:	61 97       	sbiw	r28, 0x11	; 17
    138a:	cd bf       	out	0x3d, r28	; 61
    138c:	de bf       	out	0x3e, r29	; 62
    138e:	00 91 f9 2a 	lds	r16, 0x2AF9
    1392:	10 91 fa 2a 	lds	r17, 0x2AFA
    1396:	20 91 fb 2a 	lds	r18, 0x2AFB
    139a:	30 91 fc 2a 	lds	r19, 0x2AFC
    139e:	61 30       	cpi	r22, 0x01	; 1
    13a0:	c1 f4       	brne	.+48     	; 0x13d2 <changeButtonPressState+0x72>
    13a2:	41 e0       	ldi	r20, 0x01	; 1
    13a4:	50 e0       	ldi	r21, 0x00	; 0
    13a6:	60 e0       	ldi	r22, 0x00	; 0
    13a8:	70 e0       	ldi	r23, 0x00	; 0
    13aa:	04 c0       	rjmp	.+8      	; 0x13b4 <changeButtonPressState+0x54>
    13ac:	44 0f       	add	r20, r20
    13ae:	55 1f       	adc	r21, r21
    13b0:	66 1f       	adc	r22, r22
    13b2:	77 1f       	adc	r23, r23
    13b4:	8a 95       	dec	r24
    13b6:	d2 f7       	brpl	.-12     	; 0x13ac <changeButtonPressState+0x4c>
    13b8:	40 2b       	or	r20, r16
    13ba:	51 2b       	or	r21, r17
    13bc:	62 2b       	or	r22, r18
    13be:	73 2b       	or	r23, r19
    13c0:	40 93 f9 2a 	sts	0x2AF9, r20
    13c4:	50 93 fa 2a 	sts	0x2AFA, r21
    13c8:	60 93 fb 2a 	sts	0x2AFB, r22
    13cc:	70 93 fc 2a 	sts	0x2AFC, r23
    13d0:	1d c0       	rjmp	.+58     	; 0x140c <changeButtonPressState+0xac>
    13d2:	61 11       	cpse	r22, r1
    13d4:	1b c0       	rjmp	.+54     	; 0x140c <changeButtonPressState+0xac>
    13d6:	41 e0       	ldi	r20, 0x01	; 1
    13d8:	50 e0       	ldi	r21, 0x00	; 0
    13da:	60 e0       	ldi	r22, 0x00	; 0
    13dc:	70 e0       	ldi	r23, 0x00	; 0
    13de:	04 c0       	rjmp	.+8      	; 0x13e8 <changeButtonPressState+0x88>
    13e0:	44 0f       	add	r20, r20
    13e2:	55 1f       	adc	r21, r21
    13e4:	66 1f       	adc	r22, r22
    13e6:	77 1f       	adc	r23, r23
    13e8:	8a 95       	dec	r24
    13ea:	d2 f7       	brpl	.-12     	; 0x13e0 <changeButtonPressState+0x80>
    13ec:	40 95       	com	r20
    13ee:	50 95       	com	r21
    13f0:	60 95       	com	r22
    13f2:	70 95       	com	r23
    13f4:	40 23       	and	r20, r16
    13f6:	51 23       	and	r21, r17
    13f8:	62 23       	and	r22, r18
    13fa:	73 23       	and	r23, r19
    13fc:	40 93 f9 2a 	sts	0x2AF9, r20
    1400:	50 93 fa 2a 	sts	0x2AFA, r21
    1404:	60 93 fb 2a 	sts	0x2AFB, r22
    1408:	70 93 fc 2a 	sts	0x2AFC, r23
    140c:	c0 90 f9 2a 	lds	r12, 0x2AF9
    1410:	d0 90 fa 2a 	lds	r13, 0x2AFA
    1414:	e0 90 fb 2a 	lds	r14, 0x2AFB
    1418:	f0 90 fc 2a 	lds	r15, 0x2AFC
    141c:	80 90 f3 2a 	lds	r8, 0x2AF3
    1420:	90 90 f4 2a 	lds	r9, 0x2AF4
    1424:	a1 2c       	mov	r10, r1
    1426:	b1 2c       	mov	r11, r1
    1428:	61 2c       	mov	r6, r1
    142a:	71 2c       	mov	r7, r1
    142c:	99 e0       	ldi	r25, 0x09	; 9
    142e:	59 2e       	mov	r5, r25
    1430:	d7 01       	movw	r26, r14
    1432:	c6 01       	movw	r24, r12
    1434:	0a 2c       	mov	r0, r10
    1436:	04 c0       	rjmp	.+8      	; 0x1440 <changeButtonPressState+0xe0>
    1438:	b6 95       	lsr	r27
    143a:	a7 95       	ror	r26
    143c:	97 95       	ror	r25
    143e:	87 95       	ror	r24
    1440:	0a 94       	dec	r0
    1442:	d2 f7       	brpl	.-12     	; 0x1438 <changeButtonPressState+0xd8>
    1444:	80 ff       	sbrs	r24, 0
    1446:	25 c0       	rjmp	.+74     	; 0x1492 <changeButtonPressState+0x132>
    1448:	5a 9c       	mul	r5, r10
    144a:	80 01       	movw	r16, r0
    144c:	5b 9c       	mul	r5, r11
    144e:	10 0d       	add	r17, r0
    1450:	11 24       	eor	r1, r1
    1452:	0f 5f       	subi	r16, 0xFF	; 255
    1454:	1f 4f       	sbci	r17, 0xFF	; 255
    1456:	08 0d       	add	r16, r8
    1458:	19 1d       	adc	r17, r9
    145a:	f8 01       	movw	r30, r16
    145c:	81 81       	ldd	r24, Z+1	; 0x01
    145e:	83 fd       	sbrc	r24, 3
    1460:	18 c0       	rjmp	.+48     	; 0x1492 <changeButtonPressState+0x132>
    1462:	45 80       	ldd	r4, Z+5	; 0x05
    1464:	44 20       	and	r4, r4
    1466:	91 f0       	breq	.+36     	; 0x148c <changeButtonPressState+0x12c>
    1468:	47 2d       	mov	r20, r7
    146a:	50 e0       	ldi	r21, 0x00	; 0
    146c:	64 2d       	mov	r22, r4
    146e:	70 e0       	ldi	r23, 0x00	; 0
    1470:	ce 01       	movw	r24, r28
    1472:	01 96       	adiw	r24, 0x01	; 1
    1474:	0e 94 56 21 	call	0x42ac	; 0x42ac <memchr>
    1478:	89 2b       	or	r24, r25
    147a:	41 f4       	brne	.+16     	; 0x148c <changeButtonPressState+0x12c>
    147c:	e1 e0       	ldi	r30, 0x01	; 1
    147e:	f0 e0       	ldi	r31, 0x00	; 0
    1480:	ec 0f       	add	r30, r28
    1482:	fd 1f       	adc	r31, r29
    1484:	e7 0d       	add	r30, r7
    1486:	f1 1d       	adc	r31, r1
    1488:	40 82       	st	Z, r4
    148a:	73 94       	inc	r7
    148c:	f8 01       	movw	r30, r16
    148e:	84 81       	ldd	r24, Z+4	; 0x04
    1490:	68 2a       	or	r6, r24
    1492:	fd e0       	ldi	r31, 0x0D	; 13
    1494:	af 16       	cp	r10, r31
    1496:	b1 04       	cpc	r11, r1
    1498:	61 f5       	brne	.+88     	; 0x14f2 <changeButtonPressState+0x192>
    149a:	80 90 f3 2a 	lds	r8, 0x2AF3
    149e:	90 90 f4 2a 	lds	r9, 0x2AF4
    14a2:	c4 01       	movw	r24, r8
    14a4:	8f 57       	subi	r24, 0x7F	; 127
    14a6:	9f 4f       	sbci	r25, 0xFF	; 255
    14a8:	8f 83       	std	Y+7, r24	; 0x07
    14aa:	98 87       	std	Y+8, r25	; 0x08
    14ac:	f4 01       	movw	r30, r8
    14ae:	ed 57       	subi	r30, 0x7D	; 125
    14b0:	ff 4f       	sbci	r31, 0xFF	; 255
    14b2:	e9 87       	std	Y+9, r30	; 0x09
    14b4:	fa 87       	std	Y+10, r31	; 0x0a
    14b6:	c4 01       	movw	r24, r8
    14b8:	8b 57       	subi	r24, 0x7B	; 123
    14ba:	9f 4f       	sbci	r25, 0xFF	; 255
    14bc:	8b 87       	std	Y+11, r24	; 0x0b
    14be:	9c 87       	std	Y+12, r25	; 0x0c
    14c0:	f4 01       	movw	r30, r8
    14c2:	e9 57       	subi	r30, 0x79	; 121
    14c4:	ff 4f       	sbci	r31, 0xFF	; 255
    14c6:	ed 87       	std	Y+13, r30	; 0x0d
    14c8:	fe 87       	std	Y+14, r31	; 0x0e
    14ca:	c4 01       	movw	r24, r8
    14cc:	89 56       	subi	r24, 0x69	; 105
    14ce:	9f 4f       	sbci	r25, 0xFF	; 255
    14d0:	8f 87       	std	Y+15, r24	; 0x0f
    14d2:	98 8b       	std	Y+16, r25	; 0x10
    14d4:	14 01       	movw	r2, r8
    14d6:	99 e9       	ldi	r25, 0x99	; 153
    14d8:	29 0e       	add	r2, r25
    14da:	31 1c       	adc	r3, r1
    14dc:	24 01       	movw	r4, r8
    14de:	eb e9       	ldi	r30, 0x9B	; 155
    14e0:	4e 0e       	add	r4, r30
    14e2:	51 1c       	adc	r5, r1
    14e4:	fd e9       	ldi	r31, 0x9D	; 157
    14e6:	8f 0e       	add	r8, r31
    14e8:	91 1c       	adc	r9, r1
    14ea:	8e e0       	ldi	r24, 0x0E	; 14
    14ec:	a8 2e       	mov	r10, r24
    14ee:	b1 2c       	mov	r11, r1
    14f0:	59 c0       	rjmp	.+178    	; 0x15a4 <changeButtonPressState+0x244>
    14f2:	8f ef       	ldi	r24, 0xFF	; 255
    14f4:	a8 1a       	sub	r10, r24
    14f6:	b8 0a       	sbc	r11, r24
    14f8:	95 e0       	ldi	r25, 0x05	; 5
    14fa:	97 15       	cp	r25, r7
    14fc:	08 f0       	brcs	.+2      	; 0x1500 <changeButtonPressState+0x1a0>
    14fe:	98 cf       	rjmp	.-208    	; 0x1430 <changeButtonPressState+0xd0>
    1500:	cc cf       	rjmp	.-104    	; 0x149a <changeButtonPressState+0x13a>
    1502:	d7 01       	movw	r26, r14
    1504:	c6 01       	movw	r24, r12
    1506:	0a 2c       	mov	r0, r10
    1508:	04 c0       	rjmp	.+8      	; 0x1512 <changeButtonPressState+0x1b2>
    150a:	b6 95       	lsr	r27
    150c:	a7 95       	ror	r26
    150e:	97 95       	ror	r25
    1510:	87 95       	ror	r24
    1512:	0a 94       	dec	r0
    1514:	d2 f7       	brpl	.-12     	; 0x150a <changeButtonPressState+0x1aa>
    1516:	80 ff       	sbrs	r24, 0
    1518:	3e c0       	rjmp	.+124    	; 0x1596 <changeButtonPressState+0x236>
    151a:	22 31       	cpi	r18, 0x12	; 18
    151c:	b1 f0       	breq	.+44     	; 0x154a <changeButtonPressState+0x1ea>
    151e:	30 f4       	brcc	.+12     	; 0x152c <changeButtonPressState+0x1cc>
    1520:	20 31       	cpi	r18, 0x10	; 16
    1522:	69 f0       	breq	.+26     	; 0x153e <changeButtonPressState+0x1de>
    1524:	78 f4       	brcc	.+30     	; 0x1544 <changeButtonPressState+0x1e4>
    1526:	2f 30       	cpi	r18, 0x0F	; 15
    1528:	c9 f4       	brne	.+50     	; 0x155c <changeButtonPressState+0x1fc>
    152a:	06 c0       	rjmp	.+12     	; 0x1538 <changeButtonPressState+0x1d8>
    152c:	24 31       	cpi	r18, 0x14	; 20
    152e:	91 f0       	breq	.+36     	; 0x1554 <changeButtonPressState+0x1f4>
    1530:	78 f0       	brcs	.+30     	; 0x1550 <changeButtonPressState+0x1f0>
    1532:	25 31       	cpi	r18, 0x15	; 21
    1534:	99 f4       	brne	.+38     	; 0x155c <changeButtonPressState+0x1fc>
    1536:	10 c0       	rjmp	.+32     	; 0x1558 <changeButtonPressState+0x1f8>
    1538:	09 85       	ldd	r16, Y+9	; 0x09
    153a:	1a 85       	ldd	r17, Y+10	; 0x0a
    153c:	11 c0       	rjmp	.+34     	; 0x1560 <changeButtonPressState+0x200>
    153e:	0b 85       	ldd	r16, Y+11	; 0x0b
    1540:	1c 85       	ldd	r17, Y+12	; 0x0c
    1542:	0e c0       	rjmp	.+28     	; 0x1560 <changeButtonPressState+0x200>
    1544:	0d 85       	ldd	r16, Y+13	; 0x0d
    1546:	1e 85       	ldd	r17, Y+14	; 0x0e
    1548:	0b c0       	rjmp	.+22     	; 0x1560 <changeButtonPressState+0x200>
    154a:	0f 85       	ldd	r16, Y+15	; 0x0f
    154c:	18 89       	ldd	r17, Y+16	; 0x10
    154e:	08 c0       	rjmp	.+16     	; 0x1560 <changeButtonPressState+0x200>
    1550:	81 01       	movw	r16, r2
    1552:	06 c0       	rjmp	.+12     	; 0x1560 <changeButtonPressState+0x200>
    1554:	82 01       	movw	r16, r4
    1556:	04 c0       	rjmp	.+8      	; 0x1560 <changeButtonPressState+0x200>
    1558:	84 01       	movw	r16, r8
    155a:	02 c0       	rjmp	.+4      	; 0x1560 <changeButtonPressState+0x200>
    155c:	0f 81       	ldd	r16, Y+7	; 0x07
    155e:	18 85       	ldd	r17, Y+8	; 0x08
    1560:	f8 01       	movw	r30, r16
    1562:	21 81       	ldd	r18, Z+1	; 0x01
    1564:	22 23       	and	r18, r18
    1566:	a1 f0       	breq	.+40     	; 0x1590 <changeButtonPressState+0x230>
    1568:	47 2d       	mov	r20, r7
    156a:	50 e0       	ldi	r21, 0x00	; 0
    156c:	62 2f       	mov	r22, r18
    156e:	70 e0       	ldi	r23, 0x00	; 0
    1570:	ce 01       	movw	r24, r28
    1572:	01 96       	adiw	r24, 0x01	; 1
    1574:	29 8b       	std	Y+17, r18	; 0x11
    1576:	0e 94 56 21 	call	0x42ac	; 0x42ac <memchr>
    157a:	29 89       	ldd	r18, Y+17	; 0x11
    157c:	89 2b       	or	r24, r25
    157e:	41 f4       	brne	.+16     	; 0x1590 <changeButtonPressState+0x230>
    1580:	e1 e0       	ldi	r30, 0x01	; 1
    1582:	f0 e0       	ldi	r31, 0x00	; 0
    1584:	ec 0f       	add	r30, r28
    1586:	fd 1f       	adc	r31, r29
    1588:	e7 0d       	add	r30, r7
    158a:	f1 1d       	adc	r31, r1
    158c:	20 83       	st	Z, r18
    158e:	73 94       	inc	r7
    1590:	f8 01       	movw	r30, r16
    1592:	80 81       	ld	r24, Z
    1594:	68 2a       	or	r6, r24
    1596:	ff ef       	ldi	r31, 0xFF	; 255
    1598:	af 1a       	sub	r10, r31
    159a:	bf 0a       	sbc	r11, r31
    159c:	86 e1       	ldi	r24, 0x16	; 22
    159e:	a8 16       	cp	r10, r24
    15a0:	b1 04       	cpc	r11, r1
    15a2:	29 f0       	breq	.+10     	; 0x15ae <changeButtonPressState+0x24e>
    15a4:	2a 2d       	mov	r18, r10
    15a6:	95 e0       	ldi	r25, 0x05	; 5
    15a8:	97 15       	cp	r25, r7
    15aa:	08 f0       	brcs	.+2      	; 0x15ae <changeButtonPressState+0x24e>
    15ac:	aa cf       	rjmp	.-172    	; 0x1502 <changeButtonPressState+0x1a2>
    15ae:	81 ea       	ldi	r24, 0xA1	; 161
    15b0:	0e 94 9f 1c 	call	0x393e	; 0x393e <sendBTChar>
    15b4:	81 e0       	ldi	r24, 0x01	; 1
    15b6:	0e 94 9f 1c 	call	0x393e	; 0x393e <sendBTChar>
    15ba:	80 e0       	ldi	r24, 0x00	; 0
    15bc:	0e 94 9f 1c 	call	0x393e	; 0x393e <sendBTChar>
    15c0:	86 2d       	mov	r24, r6
    15c2:	0e 94 9f 1c 	call	0x393e	; 0x393e <sendBTChar>
    15c6:	8e 01       	movw	r16, r28
    15c8:	0f 5f       	subi	r16, 0xFF	; 255
    15ca:	1f 4f       	sbci	r17, 0xFF	; 255
    15cc:	f1 2c       	mov	r15, r1
    15ce:	f7 14       	cp	r15, r7
    15d0:	28 f4       	brcc	.+10     	; 0x15dc <changeButtonPressState+0x27c>
    15d2:	f8 01       	movw	r30, r16
    15d4:	80 81       	ld	r24, Z
    15d6:	0e 94 9f 1c 	call	0x393e	; 0x393e <sendBTChar>
    15da:	03 c0       	rjmp	.+6      	; 0x15e2 <changeButtonPressState+0x282>
    15dc:	80 e0       	ldi	r24, 0x00	; 0
    15de:	0e 94 9f 1c 	call	0x393e	; 0x393e <sendBTChar>
    15e2:	f3 94       	inc	r15
    15e4:	0f 5f       	subi	r16, 0xFF	; 255
    15e6:	1f 4f       	sbci	r17, 0xFF	; 255
    15e8:	f6 e0       	ldi	r31, 0x06	; 6
    15ea:	ff 12       	cpse	r15, r31
    15ec:	f0 cf       	rjmp	.-32     	; 0x15ce <changeButtonPressState+0x26e>
    15ee:	61 96       	adiw	r28, 0x11	; 17
    15f0:	cd bf       	out	0x3d, r28	; 61
    15f2:	de bf       	out	0x3e, r29	; 62
    15f4:	df 91       	pop	r29
    15f6:	cf 91       	pop	r28
    15f8:	1f 91       	pop	r17
    15fa:	0f 91       	pop	r16
    15fc:	ff 90       	pop	r15
    15fe:	ef 90       	pop	r14
    1600:	df 90       	pop	r13
    1602:	cf 90       	pop	r12
    1604:	bf 90       	pop	r11
    1606:	af 90       	pop	r10
    1608:	9f 90       	pop	r9
    160a:	8f 90       	pop	r8
    160c:	7f 90       	pop	r7
    160e:	6f 90       	pop	r6
    1610:	5f 90       	pop	r5
    1612:	4f 90       	pop	r4
    1614:	3f 90       	pop	r3
    1616:	2f 90       	pop	r2
    1618:	08 95       	ret

0000161a <keyboardJoystickHandler>:
    161a:	df 92       	push	r13
    161c:	ef 92       	push	r14
    161e:	ff 92       	push	r15
    1620:	0f 93       	push	r16
    1622:	1f 93       	push	r17
    1624:	cf 93       	push	r28
    1626:	df 93       	push	r29
    1628:	8a 01       	movw	r16, r20
    162a:	e8 2e       	mov	r14, r24
    162c:	f1 2c       	mov	r15, r1
    162e:	96 e1       	ldi	r25, 0x16	; 22
    1630:	89 9f       	mul	r24, r25
    1632:	90 01       	movw	r18, r0
    1634:	11 24       	eor	r1, r1
    1636:	21 58       	subi	r18, 0x81	; 129
    1638:	3f 4f       	sbci	r19, 0xFF	; 255
    163a:	c0 91 f3 2a 	lds	r28, 0x2AF3
    163e:	d0 91 f4 2a 	lds	r29, 0x2AF4
    1642:	c2 0f       	add	r28, r18
    1644:	d3 1f       	adc	r29, r19
    1646:	98 81       	ld	r25, Y
    1648:	96 ff       	sbrs	r25, 6
    164a:	79 c0       	rjmp	.+242    	; 0x173e <keyboardJoystickHandler+0x124>
    164c:	d8 2e       	mov	r13, r24
    164e:	dd 0c       	add	r13, r13
    1650:	dd 0c       	add	r13, r13
    1652:	d7 01       	movw	r26, r14
    1654:	ab 50       	subi	r26, 0x0B	; 11
    1656:	b5 4d       	sbci	r27, 0xD5	; 213
    1658:	8c 91       	ld	r24, X
    165a:	83 30       	cpi	r24, 0x03	; 3
    165c:	49 f1       	breq	.+82     	; 0x16b0 <keyboardJoystickHandler+0x96>
    165e:	84 30       	cpi	r24, 0x04	; 4
    1660:	19 f0       	breq	.+6      	; 0x1668 <keyboardJoystickHandler+0x4e>
    1662:	82 30       	cpi	r24, 0x02	; 2
    1664:	89 f5       	brne	.+98     	; 0x16c8 <keyboardJoystickHandler+0xae>
    1666:	18 c0       	rjmp	.+48     	; 0x1698 <keyboardJoystickHandler+0x7e>
    1668:	8a 85       	ldd	r24, Y+10	; 0x0a
    166a:	9b 85       	ldd	r25, Y+11	; 0x0b
    166c:	68 17       	cp	r22, r24
    166e:	79 07       	cpc	r23, r25
    1670:	3c f4       	brge	.+14     	; 0x1680 <keyboardJoystickHandler+0x66>
    1672:	82 e0       	ldi	r24, 0x02	; 2
    1674:	8c 93       	st	X, r24
    1676:	61 e0       	ldi	r22, 0x01	; 1
    1678:	8d 2d       	mov	r24, r13
    167a:	80 5f       	subi	r24, 0xF0	; 240
    167c:	71 de       	rcall	.-798    	; 0x1360 <changeButtonPressState>
    167e:	26 c0       	rjmp	.+76     	; 0x16cc <keyboardJoystickHandler+0xb2>
    1680:	8c 85       	ldd	r24, Y+12	; 0x0c
    1682:	9d 85       	ldd	r25, Y+13	; 0x0d
    1684:	86 17       	cp	r24, r22
    1686:	97 07       	cpc	r25, r23
    1688:	0c f5       	brge	.+66     	; 0x16cc <keyboardJoystickHandler+0xb2>
    168a:	83 e0       	ldi	r24, 0x03	; 3
    168c:	8c 93       	st	X, r24
    168e:	61 e0       	ldi	r22, 0x01	; 1
    1690:	8d 2d       	mov	r24, r13
    1692:	8f 5e       	subi	r24, 0xEF	; 239
    1694:	65 de       	rcall	.-822    	; 0x1360 <changeButtonPressState>
    1696:	1a c0       	rjmp	.+52     	; 0x16cc <keyboardJoystickHandler+0xb2>
    1698:	2a 85       	ldd	r18, Y+10	; 0x0a
    169a:	3b 85       	ldd	r19, Y+11	; 0x0b
    169c:	26 17       	cp	r18, r22
    169e:	37 07       	cpc	r19, r23
    16a0:	ac f4       	brge	.+42     	; 0x16cc <keyboardJoystickHandler+0xb2>
    16a2:	84 e0       	ldi	r24, 0x04	; 4
    16a4:	8c 93       	st	X, r24
    16a6:	60 e0       	ldi	r22, 0x00	; 0
    16a8:	8d 2d       	mov	r24, r13
    16aa:	80 5f       	subi	r24, 0xF0	; 240
    16ac:	59 de       	rcall	.-846    	; 0x1360 <changeButtonPressState>
    16ae:	0e c0       	rjmp	.+28     	; 0x16cc <keyboardJoystickHandler+0xb2>
    16b0:	2c 85       	ldd	r18, Y+12	; 0x0c
    16b2:	3d 85       	ldd	r19, Y+13	; 0x0d
    16b4:	62 17       	cp	r22, r18
    16b6:	73 07       	cpc	r23, r19
    16b8:	4c f4       	brge	.+18     	; 0x16cc <keyboardJoystickHandler+0xb2>
    16ba:	84 e0       	ldi	r24, 0x04	; 4
    16bc:	8c 93       	st	X, r24
    16be:	60 e0       	ldi	r22, 0x00	; 0
    16c0:	8d 2d       	mov	r24, r13
    16c2:	8f 5e       	subi	r24, 0xEF	; 239
    16c4:	4d de       	rcall	.-870    	; 0x1360 <changeButtonPressState>
    16c6:	02 c0       	rjmp	.+4      	; 0x16cc <keyboardJoystickHandler+0xb2>
    16c8:	84 e0       	ldi	r24, 0x04	; 4
    16ca:	8c 93       	st	X, r24
    16cc:	8d 2d       	mov	r24, r13
    16ce:	82 5f       	subi	r24, 0xF2	; 242
    16d0:	f7 01       	movw	r30, r14
    16d2:	e9 50       	subi	r30, 0x09	; 9
    16d4:	f5 4d       	sbci	r31, 0xD5	; 213
    16d6:	90 81       	ld	r25, Z
    16d8:	91 30       	cpi	r25, 0x01	; 1
    16da:	e9 f0       	breq	.+58     	; 0x1716 <keyboardJoystickHandler+0xfc>
    16dc:	98 f0       	brcs	.+38     	; 0x1704 <keyboardJoystickHandler+0xea>
    16de:	94 30       	cpi	r25, 0x04	; 4
    16e0:	61 f5       	brne	.+88     	; 0x173a <keyboardJoystickHandler+0x120>
    16e2:	2e 85       	ldd	r18, Y+14	; 0x0e
    16e4:	3f 85       	ldd	r19, Y+15	; 0x0f
    16e6:	02 17       	cp	r16, r18
    16e8:	13 07       	cpc	r17, r19
    16ea:	1c f4       	brge	.+6      	; 0x16f2 <keyboardJoystickHandler+0xd8>
    16ec:	10 82       	st	Z, r1
    16ee:	61 e0       	ldi	r22, 0x01	; 1
    16f0:	1c c0       	rjmp	.+56     	; 0x172a <keyboardJoystickHandler+0x110>
    16f2:	28 89       	ldd	r18, Y+16	; 0x10
    16f4:	39 89       	ldd	r19, Y+17	; 0x11
    16f6:	20 17       	cp	r18, r16
    16f8:	31 07       	cpc	r19, r17
    16fa:	0c f5       	brge	.+66     	; 0x173e <keyboardJoystickHandler+0x124>
    16fc:	81 e0       	ldi	r24, 0x01	; 1
    16fe:	80 83       	st	Z, r24
    1700:	61 e0       	ldi	r22, 0x01	; 1
    1702:	11 c0       	rjmp	.+34     	; 0x1726 <keyboardJoystickHandler+0x10c>
    1704:	2e 85       	ldd	r18, Y+14	; 0x0e
    1706:	3f 85       	ldd	r19, Y+15	; 0x0f
    1708:	20 17       	cp	r18, r16
    170a:	31 07       	cpc	r19, r17
    170c:	c4 f4       	brge	.+48     	; 0x173e <keyboardJoystickHandler+0x124>
    170e:	94 e0       	ldi	r25, 0x04	; 4
    1710:	90 83       	st	Z, r25
    1712:	60 e0       	ldi	r22, 0x00	; 0
    1714:	0a c0       	rjmp	.+20     	; 0x172a <keyboardJoystickHandler+0x110>
    1716:	28 89       	ldd	r18, Y+16	; 0x10
    1718:	39 89       	ldd	r19, Y+17	; 0x11
    171a:	02 17       	cp	r16, r18
    171c:	13 07       	cpc	r17, r19
    171e:	7c f4       	brge	.+30     	; 0x173e <keyboardJoystickHandler+0x124>
    1720:	84 e0       	ldi	r24, 0x04	; 4
    1722:	80 83       	st	Z, r24
    1724:	60 e0       	ldi	r22, 0x00	; 0
    1726:	8d 2d       	mov	r24, r13
    1728:	81 5f       	subi	r24, 0xF1	; 241
    172a:	df 91       	pop	r29
    172c:	cf 91       	pop	r28
    172e:	1f 91       	pop	r17
    1730:	0f 91       	pop	r16
    1732:	ff 90       	pop	r15
    1734:	ef 90       	pop	r14
    1736:	df 90       	pop	r13
    1738:	13 ce       	rjmp	.-986    	; 0x1360 <changeButtonPressState>
    173a:	84 e0       	ldi	r24, 0x04	; 4
    173c:	80 83       	st	Z, r24
    173e:	df 91       	pop	r29
    1740:	cf 91       	pop	r28
    1742:	1f 91       	pop	r17
    1744:	0f 91       	pop	r16
    1746:	ff 90       	pop	r15
    1748:	ef 90       	pop	r14
    174a:	df 90       	pop	r13
    174c:	08 95       	ret

0000174e <keyboardButtonHandler>:
    174e:	08 ce       	rjmp	.-1008   	; 0x1360 <changeButtonPressState>

00001750 <keyboardMouseInit>:
    1750:	80 93 fd 2a 	sts	0x2AFD, r24
    1754:	90 93 fe 2a 	sts	0x2AFE, r25
    1758:	0e 94 3a 1d 	call	0x3a74	; 0x3a74 <BluetoothComboMode>
    175c:	44 e1       	ldi	r20, 0x14	; 20
    175e:	50 e0       	ldi	r21, 0x00	; 0
    1760:	60 e0       	ldi	r22, 0x00	; 0
    1762:	70 e0       	ldi	r23, 0x00	; 0
    1764:	8f ef       	ldi	r24, 0xFF	; 255
    1766:	9a e2       	ldi	r25, 0x2A	; 42
    1768:	97 c4       	rjmp	.+2350   	; 0x2098 <startTimeout>

0000176a <changeButtonState>:
    176a:	2f 92       	push	r2
    176c:	3f 92       	push	r3
    176e:	4f 92       	push	r4
    1770:	5f 92       	push	r5
    1772:	6f 92       	push	r6
    1774:	7f 92       	push	r7
    1776:	8f 92       	push	r8
    1778:	9f 92       	push	r9
    177a:	af 92       	push	r10
    177c:	bf 92       	push	r11
    177e:	cf 92       	push	r12
    1780:	df 92       	push	r13
    1782:	ef 92       	push	r14
    1784:	ff 92       	push	r15
    1786:	0f 93       	push	r16
    1788:	1f 93       	push	r17
    178a:	cf 93       	push	r28
    178c:	df 93       	push	r29
    178e:	cd b7       	in	r28, 0x3d	; 61
    1790:	de b7       	in	r29, 0x3e	; 62
    1792:	61 97       	sbiw	r28, 0x11	; 17
    1794:	cd bf       	out	0x3d, r28	; 61
    1796:	de bf       	out	0x3e, r29	; 62
    1798:	10 92 0d 2b 	sts	0x2B0D, r1
    179c:	00 91 0f 2b 	lds	r16, 0x2B0F
    17a0:	10 91 10 2b 	lds	r17, 0x2B10
    17a4:	20 91 11 2b 	lds	r18, 0x2B11
    17a8:	30 91 12 2b 	lds	r19, 0x2B12
    17ac:	61 30       	cpi	r22, 0x01	; 1
    17ae:	c1 f4       	brne	.+48     	; 0x17e0 <changeButtonState+0x76>
    17b0:	41 e0       	ldi	r20, 0x01	; 1
    17b2:	50 e0       	ldi	r21, 0x00	; 0
    17b4:	60 e0       	ldi	r22, 0x00	; 0
    17b6:	70 e0       	ldi	r23, 0x00	; 0
    17b8:	04 c0       	rjmp	.+8      	; 0x17c2 <changeButtonState+0x58>
    17ba:	44 0f       	add	r20, r20
    17bc:	55 1f       	adc	r21, r21
    17be:	66 1f       	adc	r22, r22
    17c0:	77 1f       	adc	r23, r23
    17c2:	8a 95       	dec	r24
    17c4:	d2 f7       	brpl	.-12     	; 0x17ba <changeButtonState+0x50>
    17c6:	40 2b       	or	r20, r16
    17c8:	51 2b       	or	r21, r17
    17ca:	62 2b       	or	r22, r18
    17cc:	73 2b       	or	r23, r19
    17ce:	40 93 0f 2b 	sts	0x2B0F, r20
    17d2:	50 93 10 2b 	sts	0x2B10, r21
    17d6:	60 93 11 2b 	sts	0x2B11, r22
    17da:	70 93 12 2b 	sts	0x2B12, r23
    17de:	1d c0       	rjmp	.+58     	; 0x181a <changeButtonState+0xb0>
    17e0:	61 11       	cpse	r22, r1
    17e2:	1b c0       	rjmp	.+54     	; 0x181a <changeButtonState+0xb0>
    17e4:	41 e0       	ldi	r20, 0x01	; 1
    17e6:	50 e0       	ldi	r21, 0x00	; 0
    17e8:	60 e0       	ldi	r22, 0x00	; 0
    17ea:	70 e0       	ldi	r23, 0x00	; 0
    17ec:	04 c0       	rjmp	.+8      	; 0x17f6 <changeButtonState+0x8c>
    17ee:	44 0f       	add	r20, r20
    17f0:	55 1f       	adc	r21, r21
    17f2:	66 1f       	adc	r22, r22
    17f4:	77 1f       	adc	r23, r23
    17f6:	8a 95       	dec	r24
    17f8:	d2 f7       	brpl	.-12     	; 0x17ee <changeButtonState+0x84>
    17fa:	40 95       	com	r20
    17fc:	50 95       	com	r21
    17fe:	60 95       	com	r22
    1800:	70 95       	com	r23
    1802:	40 23       	and	r20, r16
    1804:	51 23       	and	r21, r17
    1806:	62 23       	and	r22, r18
    1808:	73 23       	and	r23, r19
    180a:	40 93 0f 2b 	sts	0x2B0F, r20
    180e:	50 93 10 2b 	sts	0x2B10, r21
    1812:	60 93 11 2b 	sts	0x2B11, r22
    1816:	70 93 12 2b 	sts	0x2B12, r23
    181a:	c0 90 0f 2b 	lds	r12, 0x2B0F
    181e:	d0 90 10 2b 	lds	r13, 0x2B10
    1822:	e0 90 11 2b 	lds	r14, 0x2B11
    1826:	f0 90 12 2b 	lds	r15, 0x2B12
    182a:	80 90 fd 2a 	lds	r8, 0x2AFD
    182e:	90 90 fe 2a 	lds	r9, 0x2AFE
    1832:	a1 2c       	mov	r10, r1
    1834:	b1 2c       	mov	r11, r1
    1836:	61 2c       	mov	r6, r1
    1838:	71 2c       	mov	r7, r1
    183a:	99 e0       	ldi	r25, 0x09	; 9
    183c:	59 2e       	mov	r5, r25
    183e:	d7 01       	movw	r26, r14
    1840:	c6 01       	movw	r24, r12
    1842:	0a 2c       	mov	r0, r10
    1844:	04 c0       	rjmp	.+8      	; 0x184e <changeButtonState+0xe4>
    1846:	b6 95       	lsr	r27
    1848:	a7 95       	ror	r26
    184a:	97 95       	ror	r25
    184c:	87 95       	ror	r24
    184e:	0a 94       	dec	r0
    1850:	d2 f7       	brpl	.-12     	; 0x1846 <changeButtonState+0xdc>
    1852:	80 ff       	sbrs	r24, 0
    1854:	2d c0       	rjmp	.+90     	; 0x18b0 <changeButtonState+0x146>
    1856:	5a 9c       	mul	r5, r10
    1858:	80 01       	movw	r16, r0
    185a:	5b 9c       	mul	r5, r11
    185c:	10 0d       	add	r17, r0
    185e:	11 24       	eor	r1, r1
    1860:	0f 5f       	subi	r16, 0xFF	; 255
    1862:	1f 4f       	sbci	r17, 0xFF	; 255
    1864:	08 0d       	add	r16, r8
    1866:	19 1d       	adc	r17, r9
    1868:	f8 01       	movw	r30, r16
    186a:	81 81       	ldd	r24, Z+1	; 0x01
    186c:	83 fd       	sbrc	r24, 3
    186e:	19 c0       	rjmp	.+50     	; 0x18a2 <changeButtonState+0x138>
    1870:	45 80       	ldd	r4, Z+5	; 0x05
    1872:	44 20       	and	r4, r4
    1874:	91 f0       	breq	.+36     	; 0x189a <changeButtonState+0x130>
    1876:	47 2d       	mov	r20, r7
    1878:	50 e0       	ldi	r21, 0x00	; 0
    187a:	64 2d       	mov	r22, r4
    187c:	70 e0       	ldi	r23, 0x00	; 0
    187e:	ce 01       	movw	r24, r28
    1880:	01 96       	adiw	r24, 0x01	; 1
    1882:	0e 94 56 21 	call	0x42ac	; 0x42ac <memchr>
    1886:	89 2b       	or	r24, r25
    1888:	41 f4       	brne	.+16     	; 0x189a <changeButtonState+0x130>
    188a:	e1 e0       	ldi	r30, 0x01	; 1
    188c:	f0 e0       	ldi	r31, 0x00	; 0
    188e:	ec 0f       	add	r30, r28
    1890:	fd 1f       	adc	r31, r29
    1892:	e7 0d       	add	r30, r7
    1894:	f1 1d       	adc	r31, r1
    1896:	40 82       	st	Z, r4
    1898:	73 94       	inc	r7
    189a:	f8 01       	movw	r30, r16
    189c:	84 81       	ldd	r24, Z+4	; 0x04
    189e:	68 2a       	or	r6, r24
    18a0:	07 c0       	rjmp	.+14     	; 0x18b0 <changeButtonState+0x146>
    18a2:	98 2f       	mov	r25, r24
    18a4:	97 70       	andi	r25, 0x07	; 7
    18a6:	80 91 0d 2b 	lds	r24, 0x2B0D
    18aa:	89 2b       	or	r24, r25
    18ac:	80 93 0d 2b 	sts	0x2B0D, r24
    18b0:	fd e0       	ldi	r31, 0x0D	; 13
    18b2:	af 16       	cp	r10, r31
    18b4:	b1 04       	cpc	r11, r1
    18b6:	61 f5       	brne	.+88     	; 0x1910 <changeButtonState+0x1a6>
    18b8:	80 90 fd 2a 	lds	r8, 0x2AFD
    18bc:	90 90 fe 2a 	lds	r9, 0x2AFE
    18c0:	c4 01       	movw	r24, r8
    18c2:	8f 57       	subi	r24, 0x7F	; 127
    18c4:	9f 4f       	sbci	r25, 0xFF	; 255
    18c6:	8f 83       	std	Y+7, r24	; 0x07
    18c8:	98 87       	std	Y+8, r25	; 0x08
    18ca:	f4 01       	movw	r30, r8
    18cc:	ed 57       	subi	r30, 0x7D	; 125
    18ce:	ff 4f       	sbci	r31, 0xFF	; 255
    18d0:	e9 87       	std	Y+9, r30	; 0x09
    18d2:	fa 87       	std	Y+10, r31	; 0x0a
    18d4:	c4 01       	movw	r24, r8
    18d6:	8b 57       	subi	r24, 0x7B	; 123
    18d8:	9f 4f       	sbci	r25, 0xFF	; 255
    18da:	8b 87       	std	Y+11, r24	; 0x0b
    18dc:	9c 87       	std	Y+12, r25	; 0x0c
    18de:	f4 01       	movw	r30, r8
    18e0:	e9 57       	subi	r30, 0x79	; 121
    18e2:	ff 4f       	sbci	r31, 0xFF	; 255
    18e4:	ed 87       	std	Y+13, r30	; 0x0d
    18e6:	fe 87       	std	Y+14, r31	; 0x0e
    18e8:	c4 01       	movw	r24, r8
    18ea:	89 56       	subi	r24, 0x69	; 105
    18ec:	9f 4f       	sbci	r25, 0xFF	; 255
    18ee:	8f 87       	std	Y+15, r24	; 0x0f
    18f0:	98 8b       	std	Y+16, r25	; 0x10
    18f2:	14 01       	movw	r2, r8
    18f4:	99 e9       	ldi	r25, 0x99	; 153
    18f6:	29 0e       	add	r2, r25
    18f8:	31 1c       	adc	r3, r1
    18fa:	24 01       	movw	r4, r8
    18fc:	eb e9       	ldi	r30, 0x9B	; 155
    18fe:	4e 0e       	add	r4, r30
    1900:	51 1c       	adc	r5, r1
    1902:	fd e9       	ldi	r31, 0x9D	; 157
    1904:	8f 0e       	add	r8, r31
    1906:	91 1c       	adc	r9, r1
    1908:	8e e0       	ldi	r24, 0x0E	; 14
    190a:	a8 2e       	mov	r10, r24
    190c:	b1 2c       	mov	r11, r1
    190e:	59 c0       	rjmp	.+178    	; 0x19c2 <changeButtonState+0x258>
    1910:	8f ef       	ldi	r24, 0xFF	; 255
    1912:	a8 1a       	sub	r10, r24
    1914:	b8 0a       	sbc	r11, r24
    1916:	95 e0       	ldi	r25, 0x05	; 5
    1918:	97 15       	cp	r25, r7
    191a:	08 f0       	brcs	.+2      	; 0x191e <changeButtonState+0x1b4>
    191c:	90 cf       	rjmp	.-224    	; 0x183e <changeButtonState+0xd4>
    191e:	cc cf       	rjmp	.-104    	; 0x18b8 <changeButtonState+0x14e>
    1920:	d7 01       	movw	r26, r14
    1922:	c6 01       	movw	r24, r12
    1924:	0a 2c       	mov	r0, r10
    1926:	04 c0       	rjmp	.+8      	; 0x1930 <changeButtonState+0x1c6>
    1928:	b6 95       	lsr	r27
    192a:	a7 95       	ror	r26
    192c:	97 95       	ror	r25
    192e:	87 95       	ror	r24
    1930:	0a 94       	dec	r0
    1932:	d2 f7       	brpl	.-12     	; 0x1928 <changeButtonState+0x1be>
    1934:	80 ff       	sbrs	r24, 0
    1936:	3e c0       	rjmp	.+124    	; 0x19b4 <changeButtonState+0x24a>
    1938:	22 31       	cpi	r18, 0x12	; 18
    193a:	b1 f0       	breq	.+44     	; 0x1968 <changeButtonState+0x1fe>
    193c:	30 f4       	brcc	.+12     	; 0x194a <changeButtonState+0x1e0>
    193e:	20 31       	cpi	r18, 0x10	; 16
    1940:	69 f0       	breq	.+26     	; 0x195c <changeButtonState+0x1f2>
    1942:	78 f4       	brcc	.+30     	; 0x1962 <changeButtonState+0x1f8>
    1944:	2f 30       	cpi	r18, 0x0F	; 15
    1946:	c9 f4       	brne	.+50     	; 0x197a <changeButtonState+0x210>
    1948:	06 c0       	rjmp	.+12     	; 0x1956 <changeButtonState+0x1ec>
    194a:	24 31       	cpi	r18, 0x14	; 20
    194c:	91 f0       	breq	.+36     	; 0x1972 <changeButtonState+0x208>
    194e:	78 f0       	brcs	.+30     	; 0x196e <changeButtonState+0x204>
    1950:	25 31       	cpi	r18, 0x15	; 21
    1952:	99 f4       	brne	.+38     	; 0x197a <changeButtonState+0x210>
    1954:	10 c0       	rjmp	.+32     	; 0x1976 <changeButtonState+0x20c>
    1956:	09 85       	ldd	r16, Y+9	; 0x09
    1958:	1a 85       	ldd	r17, Y+10	; 0x0a
    195a:	11 c0       	rjmp	.+34     	; 0x197e <changeButtonState+0x214>
    195c:	0b 85       	ldd	r16, Y+11	; 0x0b
    195e:	1c 85       	ldd	r17, Y+12	; 0x0c
    1960:	0e c0       	rjmp	.+28     	; 0x197e <changeButtonState+0x214>
    1962:	0d 85       	ldd	r16, Y+13	; 0x0d
    1964:	1e 85       	ldd	r17, Y+14	; 0x0e
    1966:	0b c0       	rjmp	.+22     	; 0x197e <changeButtonState+0x214>
    1968:	0f 85       	ldd	r16, Y+15	; 0x0f
    196a:	18 89       	ldd	r17, Y+16	; 0x10
    196c:	08 c0       	rjmp	.+16     	; 0x197e <changeButtonState+0x214>
    196e:	81 01       	movw	r16, r2
    1970:	06 c0       	rjmp	.+12     	; 0x197e <changeButtonState+0x214>
    1972:	82 01       	movw	r16, r4
    1974:	04 c0       	rjmp	.+8      	; 0x197e <changeButtonState+0x214>
    1976:	84 01       	movw	r16, r8
    1978:	02 c0       	rjmp	.+4      	; 0x197e <changeButtonState+0x214>
    197a:	0f 81       	ldd	r16, Y+7	; 0x07
    197c:	18 85       	ldd	r17, Y+8	; 0x08
    197e:	f8 01       	movw	r30, r16
    1980:	21 81       	ldd	r18, Z+1	; 0x01
    1982:	22 23       	and	r18, r18
    1984:	a1 f0       	breq	.+40     	; 0x19ae <changeButtonState+0x244>
    1986:	47 2d       	mov	r20, r7
    1988:	50 e0       	ldi	r21, 0x00	; 0
    198a:	62 2f       	mov	r22, r18
    198c:	70 e0       	ldi	r23, 0x00	; 0
    198e:	ce 01       	movw	r24, r28
    1990:	01 96       	adiw	r24, 0x01	; 1
    1992:	29 8b       	std	Y+17, r18	; 0x11
    1994:	0e 94 56 21 	call	0x42ac	; 0x42ac <memchr>
    1998:	29 89       	ldd	r18, Y+17	; 0x11
    199a:	89 2b       	or	r24, r25
    199c:	41 f4       	brne	.+16     	; 0x19ae <changeButtonState+0x244>
    199e:	e1 e0       	ldi	r30, 0x01	; 1
    19a0:	f0 e0       	ldi	r31, 0x00	; 0
    19a2:	ec 0f       	add	r30, r28
    19a4:	fd 1f       	adc	r31, r29
    19a6:	e7 0d       	add	r30, r7
    19a8:	f1 1d       	adc	r31, r1
    19aa:	20 83       	st	Z, r18
    19ac:	73 94       	inc	r7
    19ae:	f8 01       	movw	r30, r16
    19b0:	80 81       	ld	r24, Z
    19b2:	68 2a       	or	r6, r24
    19b4:	ff ef       	ldi	r31, 0xFF	; 255
    19b6:	af 1a       	sub	r10, r31
    19b8:	bf 0a       	sbc	r11, r31
    19ba:	86 e1       	ldi	r24, 0x16	; 22
    19bc:	a8 16       	cp	r10, r24
    19be:	b1 04       	cpc	r11, r1
    19c0:	29 f0       	breq	.+10     	; 0x19cc <changeButtonState+0x262>
    19c2:	2a 2d       	mov	r18, r10
    19c4:	95 e0       	ldi	r25, 0x05	; 5
    19c6:	97 15       	cp	r25, r7
    19c8:	08 f0       	brcs	.+2      	; 0x19cc <changeButtonState+0x262>
    19ca:	aa cf       	rjmp	.-172    	; 0x1920 <changeButtonState+0x1b6>
    19cc:	81 ea       	ldi	r24, 0xA1	; 161
    19ce:	0e 94 9f 1c 	call	0x393e	; 0x393e <sendBTChar>
    19d2:	81 e0       	ldi	r24, 0x01	; 1
    19d4:	0e 94 9f 1c 	call	0x393e	; 0x393e <sendBTChar>
    19d8:	80 e0       	ldi	r24, 0x00	; 0
    19da:	0e 94 9f 1c 	call	0x393e	; 0x393e <sendBTChar>
    19de:	86 2d       	mov	r24, r6
    19e0:	0e 94 9f 1c 	call	0x393e	; 0x393e <sendBTChar>
    19e4:	8e 01       	movw	r16, r28
    19e6:	0f 5f       	subi	r16, 0xFF	; 255
    19e8:	1f 4f       	sbci	r17, 0xFF	; 255
    19ea:	f1 2c       	mov	r15, r1
    19ec:	f7 14       	cp	r15, r7
    19ee:	28 f4       	brcc	.+10     	; 0x19fa <changeButtonState+0x290>
    19f0:	f8 01       	movw	r30, r16
    19f2:	80 81       	ld	r24, Z
    19f4:	0e 94 9f 1c 	call	0x393e	; 0x393e <sendBTChar>
    19f8:	03 c0       	rjmp	.+6      	; 0x1a00 <changeButtonState+0x296>
    19fa:	80 e0       	ldi	r24, 0x00	; 0
    19fc:	0e 94 9f 1c 	call	0x393e	; 0x393e <sendBTChar>
    1a00:	f3 94       	inc	r15
    1a02:	0f 5f       	subi	r16, 0xFF	; 255
    1a04:	1f 4f       	sbci	r17, 0xFF	; 255
    1a06:	f6 e0       	ldi	r31, 0x06	; 6
    1a08:	ff 12       	cpse	r15, r31
    1a0a:	f0 cf       	rjmp	.-32     	; 0x19ec <changeButtonState+0x282>
    1a0c:	61 96       	adiw	r28, 0x11	; 17
    1a0e:	cd bf       	out	0x3d, r28	; 61
    1a10:	de bf       	out	0x3e, r29	; 62
    1a12:	df 91       	pop	r29
    1a14:	cf 91       	pop	r28
    1a16:	1f 91       	pop	r17
    1a18:	0f 91       	pop	r16
    1a1a:	ff 90       	pop	r15
    1a1c:	ef 90       	pop	r14
    1a1e:	df 90       	pop	r13
    1a20:	cf 90       	pop	r12
    1a22:	bf 90       	pop	r11
    1a24:	af 90       	pop	r10
    1a26:	9f 90       	pop	r9
    1a28:	8f 90       	pop	r8
    1a2a:	7f 90       	pop	r7
    1a2c:	6f 90       	pop	r6
    1a2e:	5f 90       	pop	r5
    1a30:	4f 90       	pop	r4
    1a32:	3f 90       	pop	r3
    1a34:	2f 90       	pop	r2
    1a36:	08 95       	ret

00001a38 <keyboardMouseJoystickHandler>:
    1a38:	df 92       	push	r13
    1a3a:	ef 92       	push	r14
    1a3c:	ff 92       	push	r15
    1a3e:	0f 93       	push	r16
    1a40:	1f 93       	push	r17
    1a42:	cf 93       	push	r28
    1a44:	df 93       	push	r29
    1a46:	8a 01       	movw	r16, r20
    1a48:	46 e1       	ldi	r20, 0x16	; 22
    1a4a:	84 9f       	mul	r24, r20
    1a4c:	90 01       	movw	r18, r0
    1a4e:	11 24       	eor	r1, r1
    1a50:	21 58       	subi	r18, 0x81	; 129
    1a52:	3f 4f       	sbci	r19, 0xFF	; 255
    1a54:	c0 91 fd 2a 	lds	r28, 0x2AFD
    1a58:	d0 91 fe 2a 	lds	r29, 0x2AFE
    1a5c:	c2 0f       	add	r28, r18
    1a5e:	d3 1f       	adc	r29, r19
    1a60:	e8 2e       	mov	r14, r24
    1a62:	f1 2c       	mov	r15, r1
    1a64:	9e e0       	ldi	r25, 0x0E	; 14
    1a66:	89 9f       	mul	r24, r25
    1a68:	d0 01       	movw	r26, r0
    1a6a:	11 24       	eor	r1, r1
    1a6c:	a8 5c       	subi	r26, 0xC8	; 200
    1a6e:	bf 4d       	sbci	r27, 0xDF	; 223
    1a70:	12 96       	adiw	r26, 0x02	; 2
    1a72:	4c 91       	ld	r20, X
    1a74:	12 97       	sbiw	r26, 0x02	; 2
    1a76:	13 96       	adiw	r26, 0x03	; 3
    1a78:	9c 91       	ld	r25, X
    1a7a:	13 97       	sbiw	r26, 0x03	; 3
    1a7c:	14 96       	adiw	r26, 0x04	; 4
    1a7e:	fc 91       	ld	r31, X
    1a80:	14 97       	sbiw	r26, 0x04	; 4
    1a82:	15 96       	adiw	r26, 0x05	; 5
    1a84:	ec 91       	ld	r30, X
    1a86:	28 81       	ld	r18, Y
    1a88:	26 fd       	sbrc	r18, 6
    1a8a:	52 c0       	rjmp	.+164    	; 0x1b30 <keyboardMouseJoystickHandler+0xf8>
    1a8c:	24 2f       	mov	r18, r20
    1a8e:	39 2f       	mov	r19, r25
    1a90:	8a 89       	ldd	r24, Y+18	; 0x12
    1a92:	9b 89       	ldd	r25, Y+19	; 0x13
    1a94:	a9 01       	movw	r20, r18
    1a96:	48 1b       	sub	r20, r24
    1a98:	59 0b       	sbc	r21, r25
    1a9a:	64 17       	cp	r22, r20
    1a9c:	75 07       	cpc	r23, r21
    1a9e:	74 f4       	brge	.+28     	; 0x1abc <keyboardMouseJoystickHandler+0x84>
    1aa0:	82 1b       	sub	r24, r18
    1aa2:	93 0b       	sbc	r25, r19
    1aa4:	86 0f       	add	r24, r22
    1aa6:	97 1f       	adc	r25, r23
    1aa8:	97 ff       	sbrs	r25, 7
    1aaa:	02 c0       	rjmp	.+4      	; 0x1ab0 <keyboardMouseJoystickHandler+0x78>
    1aac:	81 50       	subi	r24, 0x01	; 1
    1aae:	9f 4f       	sbci	r25, 0xFF	; 255
    1ab0:	80 91 07 2b 	lds	r24, 0x2B07
    1ab4:	89 0f       	add	r24, r25
    1ab6:	80 93 07 2b 	sts	0x2B07, r24
    1aba:	10 c0       	rjmp	.+32     	; 0x1adc <keyboardMouseJoystickHandler+0xa4>
    1abc:	82 0f       	add	r24, r18
    1abe:	93 1f       	adc	r25, r19
    1ac0:	86 17       	cp	r24, r22
    1ac2:	97 07       	cpc	r25, r23
    1ac4:	5c f4       	brge	.+22     	; 0x1adc <keyboardMouseJoystickHandler+0xa4>
    1ac6:	68 1b       	sub	r22, r24
    1ac8:	79 0b       	sbc	r23, r25
    1aca:	77 ff       	sbrs	r23, 7
    1acc:	02 c0       	rjmp	.+4      	; 0x1ad2 <keyboardMouseJoystickHandler+0x9a>
    1ace:	61 50       	subi	r22, 0x01	; 1
    1ad0:	7f 4f       	sbci	r23, 0xFF	; 255
    1ad2:	80 91 07 2b 	lds	r24, 0x2B07
    1ad6:	87 0f       	add	r24, r23
    1ad8:	80 93 07 2b 	sts	0x2B07, r24
    1adc:	2f 2f       	mov	r18, r31
    1ade:	3e 2f       	mov	r19, r30
    1ae0:	8c 89       	ldd	r24, Y+20	; 0x14
    1ae2:	9d 89       	ldd	r25, Y+21	; 0x15
    1ae4:	a9 01       	movw	r20, r18
    1ae6:	48 1b       	sub	r20, r24
    1ae8:	59 0b       	sbc	r21, r25
    1aea:	04 17       	cp	r16, r20
    1aec:	15 07       	cpc	r17, r21
    1aee:	74 f4       	brge	.+28     	; 0x1b0c <keyboardMouseJoystickHandler+0xd4>
    1af0:	82 1b       	sub	r24, r18
    1af2:	93 0b       	sbc	r25, r19
    1af4:	80 0f       	add	r24, r16
    1af6:	91 1f       	adc	r25, r17
    1af8:	97 ff       	sbrs	r25, 7
    1afa:	02 c0       	rjmp	.+4      	; 0x1b00 <keyboardMouseJoystickHandler+0xc8>
    1afc:	81 50       	subi	r24, 0x01	; 1
    1afe:	9f 4f       	sbci	r25, 0xFF	; 255
    1b00:	80 91 08 2b 	lds	r24, 0x2B08
    1b04:	89 0f       	add	r24, r25
    1b06:	80 93 08 2b 	sts	0x2B08, r24
    1b0a:	8a c0       	rjmp	.+276    	; 0x1c20 <keyboardMouseJoystickHandler+0x1e8>
    1b0c:	82 0f       	add	r24, r18
    1b0e:	93 1f       	adc	r25, r19
    1b10:	80 17       	cp	r24, r16
    1b12:	91 07       	cpc	r25, r17
    1b14:	0c f0       	brlt	.+2      	; 0x1b18 <keyboardMouseJoystickHandler+0xe0>
    1b16:	84 c0       	rjmp	.+264    	; 0x1c20 <keyboardMouseJoystickHandler+0x1e8>
    1b18:	08 1b       	sub	r16, r24
    1b1a:	19 0b       	sbc	r17, r25
    1b1c:	17 ff       	sbrs	r17, 7
    1b1e:	02 c0       	rjmp	.+4      	; 0x1b24 <keyboardMouseJoystickHandler+0xec>
    1b20:	01 50       	subi	r16, 0x01	; 1
    1b22:	1f 4f       	sbci	r17, 0xFF	; 255
    1b24:	80 91 08 2b 	lds	r24, 0x2B08
    1b28:	81 0f       	add	r24, r17
    1b2a:	80 93 08 2b 	sts	0x2B08, r24
    1b2e:	78 c0       	rjmp	.+240    	; 0x1c20 <keyboardMouseJoystickHandler+0x1e8>
    1b30:	d8 2e       	mov	r13, r24
    1b32:	dd 0c       	add	r13, r13
    1b34:	dd 0c       	add	r13, r13
    1b36:	d7 01       	movw	r26, r14
    1b38:	a7 5f       	subi	r26, 0xF7	; 247
    1b3a:	b4 4d       	sbci	r27, 0xD4	; 212
    1b3c:	8c 91       	ld	r24, X
    1b3e:	83 30       	cpi	r24, 0x03	; 3
    1b40:	49 f1       	breq	.+82     	; 0x1b94 <keyboardMouseJoystickHandler+0x15c>
    1b42:	84 30       	cpi	r24, 0x04	; 4
    1b44:	19 f0       	breq	.+6      	; 0x1b4c <keyboardMouseJoystickHandler+0x114>
    1b46:	82 30       	cpi	r24, 0x02	; 2
    1b48:	89 f5       	brne	.+98     	; 0x1bac <keyboardMouseJoystickHandler+0x174>
    1b4a:	18 c0       	rjmp	.+48     	; 0x1b7c <keyboardMouseJoystickHandler+0x144>
    1b4c:	8a 85       	ldd	r24, Y+10	; 0x0a
    1b4e:	9b 85       	ldd	r25, Y+11	; 0x0b
    1b50:	68 17       	cp	r22, r24
    1b52:	79 07       	cpc	r23, r25
    1b54:	3c f4       	brge	.+14     	; 0x1b64 <keyboardMouseJoystickHandler+0x12c>
    1b56:	82 e0       	ldi	r24, 0x02	; 2
    1b58:	8c 93       	st	X, r24
    1b5a:	61 e0       	ldi	r22, 0x01	; 1
    1b5c:	8d 2d       	mov	r24, r13
    1b5e:	80 5f       	subi	r24, 0xF0	; 240
    1b60:	04 de       	rcall	.-1016   	; 0x176a <changeButtonState>
    1b62:	26 c0       	rjmp	.+76     	; 0x1bb0 <keyboardMouseJoystickHandler+0x178>
    1b64:	8c 85       	ldd	r24, Y+12	; 0x0c
    1b66:	9d 85       	ldd	r25, Y+13	; 0x0d
    1b68:	86 17       	cp	r24, r22
    1b6a:	97 07       	cpc	r25, r23
    1b6c:	0c f5       	brge	.+66     	; 0x1bb0 <keyboardMouseJoystickHandler+0x178>
    1b6e:	83 e0       	ldi	r24, 0x03	; 3
    1b70:	8c 93       	st	X, r24
    1b72:	61 e0       	ldi	r22, 0x01	; 1
    1b74:	8d 2d       	mov	r24, r13
    1b76:	8f 5e       	subi	r24, 0xEF	; 239
    1b78:	f8 dd       	rcall	.-1040   	; 0x176a <changeButtonState>
    1b7a:	1a c0       	rjmp	.+52     	; 0x1bb0 <keyboardMouseJoystickHandler+0x178>
    1b7c:	2a 85       	ldd	r18, Y+10	; 0x0a
    1b7e:	3b 85       	ldd	r19, Y+11	; 0x0b
    1b80:	26 17       	cp	r18, r22
    1b82:	37 07       	cpc	r19, r23
    1b84:	ac f4       	brge	.+42     	; 0x1bb0 <keyboardMouseJoystickHandler+0x178>
    1b86:	84 e0       	ldi	r24, 0x04	; 4
    1b88:	8c 93       	st	X, r24
    1b8a:	60 e0       	ldi	r22, 0x00	; 0
    1b8c:	8d 2d       	mov	r24, r13
    1b8e:	80 5f       	subi	r24, 0xF0	; 240
    1b90:	ec dd       	rcall	.-1064   	; 0x176a <changeButtonState>
    1b92:	0e c0       	rjmp	.+28     	; 0x1bb0 <keyboardMouseJoystickHandler+0x178>
    1b94:	2c 85       	ldd	r18, Y+12	; 0x0c
    1b96:	3d 85       	ldd	r19, Y+13	; 0x0d
    1b98:	62 17       	cp	r22, r18
    1b9a:	73 07       	cpc	r23, r19
    1b9c:	4c f4       	brge	.+18     	; 0x1bb0 <keyboardMouseJoystickHandler+0x178>
    1b9e:	84 e0       	ldi	r24, 0x04	; 4
    1ba0:	8c 93       	st	X, r24
    1ba2:	60 e0       	ldi	r22, 0x00	; 0
    1ba4:	8d 2d       	mov	r24, r13
    1ba6:	8f 5e       	subi	r24, 0xEF	; 239
    1ba8:	e0 dd       	rcall	.-1088   	; 0x176a <changeButtonState>
    1baa:	02 c0       	rjmp	.+4      	; 0x1bb0 <keyboardMouseJoystickHandler+0x178>
    1bac:	84 e0       	ldi	r24, 0x04	; 4
    1bae:	8c 93       	st	X, r24
    1bb0:	8d 2d       	mov	r24, r13
    1bb2:	82 5f       	subi	r24, 0xF2	; 242
    1bb4:	f7 01       	movw	r30, r14
    1bb6:	e5 5f       	subi	r30, 0xF5	; 245
    1bb8:	f4 4d       	sbci	r31, 0xD4	; 212
    1bba:	90 81       	ld	r25, Z
    1bbc:	91 30       	cpi	r25, 0x01	; 1
    1bbe:	11 f1       	breq	.+68     	; 0x1c04 <keyboardMouseJoystickHandler+0x1cc>
    1bc0:	b8 f0       	brcs	.+46     	; 0x1bf0 <keyboardMouseJoystickHandler+0x1b8>
    1bc2:	94 30       	cpi	r25, 0x04	; 4
    1bc4:	59 f5       	brne	.+86     	; 0x1c1c <keyboardMouseJoystickHandler+0x1e4>
    1bc6:	2e 85       	ldd	r18, Y+14	; 0x0e
    1bc8:	3f 85       	ldd	r19, Y+15	; 0x0f
    1bca:	02 17       	cp	r16, r18
    1bcc:	13 07       	cpc	r17, r19
    1bce:	24 f4       	brge	.+8      	; 0x1bd8 <keyboardMouseJoystickHandler+0x1a0>
    1bd0:	10 82       	st	Z, r1
    1bd2:	61 e0       	ldi	r22, 0x01	; 1
    1bd4:	ca dd       	rcall	.-1132   	; 0x176a <changeButtonState>
    1bd6:	24 c0       	rjmp	.+72     	; 0x1c20 <keyboardMouseJoystickHandler+0x1e8>
    1bd8:	28 89       	ldd	r18, Y+16	; 0x10
    1bda:	39 89       	ldd	r19, Y+17	; 0x11
    1bdc:	20 17       	cp	r18, r16
    1bde:	31 07       	cpc	r19, r17
    1be0:	fc f4       	brge	.+62     	; 0x1c20 <keyboardMouseJoystickHandler+0x1e8>
    1be2:	81 e0       	ldi	r24, 0x01	; 1
    1be4:	80 83       	st	Z, r24
    1be6:	61 e0       	ldi	r22, 0x01	; 1
    1be8:	8d 2d       	mov	r24, r13
    1bea:	81 5f       	subi	r24, 0xF1	; 241
    1bec:	be dd       	rcall	.-1156   	; 0x176a <changeButtonState>
    1bee:	18 c0       	rjmp	.+48     	; 0x1c20 <keyboardMouseJoystickHandler+0x1e8>
    1bf0:	2e 85       	ldd	r18, Y+14	; 0x0e
    1bf2:	3f 85       	ldd	r19, Y+15	; 0x0f
    1bf4:	20 17       	cp	r18, r16
    1bf6:	31 07       	cpc	r19, r17
    1bf8:	9c f4       	brge	.+38     	; 0x1c20 <keyboardMouseJoystickHandler+0x1e8>
    1bfa:	94 e0       	ldi	r25, 0x04	; 4
    1bfc:	90 83       	st	Z, r25
    1bfe:	60 e0       	ldi	r22, 0x00	; 0
    1c00:	b4 dd       	rcall	.-1176   	; 0x176a <changeButtonState>
    1c02:	0e c0       	rjmp	.+28     	; 0x1c20 <keyboardMouseJoystickHandler+0x1e8>
    1c04:	28 89       	ldd	r18, Y+16	; 0x10
    1c06:	39 89       	ldd	r19, Y+17	; 0x11
    1c08:	02 17       	cp	r16, r18
    1c0a:	13 07       	cpc	r17, r19
    1c0c:	4c f4       	brge	.+18     	; 0x1c20 <keyboardMouseJoystickHandler+0x1e8>
    1c0e:	84 e0       	ldi	r24, 0x04	; 4
    1c10:	80 83       	st	Z, r24
    1c12:	60 e0       	ldi	r22, 0x00	; 0
    1c14:	8d 2d       	mov	r24, r13
    1c16:	81 5f       	subi	r24, 0xF1	; 241
    1c18:	a8 dd       	rcall	.-1200   	; 0x176a <changeButtonState>
    1c1a:	02 c0       	rjmp	.+4      	; 0x1c20 <keyboardMouseJoystickHandler+0x1e8>
    1c1c:	84 e0       	ldi	r24, 0x04	; 4
    1c1e:	80 83       	st	Z, r24
    1c20:	80 91 07 2b 	lds	r24, 0x2B07
    1c24:	81 11       	cpse	r24, r1
    1c26:	0b c0       	rjmp	.+22     	; 0x1c3e <keyboardMouseJoystickHandler+0x206>
    1c28:	80 91 08 2b 	lds	r24, 0x2B08
    1c2c:	81 11       	cpse	r24, r1
    1c2e:	07 c0       	rjmp	.+14     	; 0x1c3e <keyboardMouseJoystickHandler+0x206>
    1c30:	90 91 0d 2b 	lds	r25, 0x2B0D
    1c34:	80 91 0e 2b 	lds	r24, 0x2B0E
    1c38:	98 17       	cp	r25, r24
    1c3a:	09 f4       	brne	.+2      	; 0x1c3e <keyboardMouseJoystickHandler+0x206>
    1c3c:	40 c0       	rjmp	.+128    	; 0x1cbe <keyboardMouseJoystickHandler+0x286>
    1c3e:	8f ef       	ldi	r24, 0xFF	; 255
    1c40:	9a e2       	ldi	r25, 0x2A	; 42
    1c42:	43 d2       	rcall	.+1158   	; 0x20ca <checkTimeout>
    1c44:	88 23       	and	r24, r24
    1c46:	d9 f1       	breq	.+118    	; 0x1cbe <keyboardMouseJoystickHandler+0x286>
    1c48:	44 e1       	ldi	r20, 0x14	; 20
    1c4a:	50 e0       	ldi	r21, 0x00	; 0
    1c4c:	60 e0       	ldi	r22, 0x00	; 0
    1c4e:	70 e0       	ldi	r23, 0x00	; 0
    1c50:	8f ef       	ldi	r24, 0xFF	; 255
    1c52:	9a e2       	ldi	r25, 0x2A	; 42
    1c54:	21 d2       	rcall	.+1090   	; 0x2098 <startTimeout>
    1c56:	80 91 0d 2b 	lds	r24, 0x2B0D
    1c5a:	80 93 0e 2b 	sts	0x2B0E, r24
    1c5e:	81 ea       	ldi	r24, 0xA1	; 161
    1c60:	0e 94 9f 1c 	call	0x393e	; 0x393e <sendBTChar>
    1c64:	83 e0       	ldi	r24, 0x03	; 3
    1c66:	0e 94 9f 1c 	call	0x393e	; 0x393e <sendBTChar>
    1c6a:	80 91 0d 2b 	lds	r24, 0x2B0D
    1c6e:	0e 94 9f 1c 	call	0x393e	; 0x393e <sendBTChar>
    1c72:	80 91 07 2b 	lds	r24, 0x2B07
    1c76:	0e 94 9f 1c 	call	0x393e	; 0x393e <sendBTChar>
    1c7a:	20 91 07 2b 	lds	r18, 0x2B07
    1c7e:	33 27       	eor	r19, r19
    1c80:	27 fd       	sbrc	r18, 7
    1c82:	30 95       	com	r19
    1c84:	23 2f       	mov	r18, r19
    1c86:	33 0f       	add	r19, r19
    1c88:	33 0b       	sbc	r19, r19
    1c8a:	2f 70       	andi	r18, 0x0F	; 15
    1c8c:	33 27       	eor	r19, r19
    1c8e:	80 91 08 2b 	lds	r24, 0x2B08
    1c92:	40 e1       	ldi	r20, 0x10	; 16
    1c94:	84 02       	muls	r24, r20
    1c96:	c0 01       	movw	r24, r0
    1c98:	11 24       	eor	r1, r1
    1c9a:	82 2b       	or	r24, r18
    1c9c:	0e 94 9f 1c 	call	0x393e	; 0x393e <sendBTChar>
    1ca0:	80 91 08 2b 	lds	r24, 0x2B08
    1ca4:	85 95       	asr	r24
    1ca6:	85 95       	asr	r24
    1ca8:	85 95       	asr	r24
    1caa:	85 95       	asr	r24
    1cac:	0e 94 9f 1c 	call	0x393e	; 0x393e <sendBTChar>
    1cb0:	80 e0       	ldi	r24, 0x00	; 0
    1cb2:	0e 94 9f 1c 	call	0x393e	; 0x393e <sendBTChar>
    1cb6:	10 92 07 2b 	sts	0x2B07, r1
    1cba:	10 92 08 2b 	sts	0x2B08, r1
    1cbe:	df 91       	pop	r29
    1cc0:	cf 91       	pop	r28
    1cc2:	1f 91       	pop	r17
    1cc4:	0f 91       	pop	r16
    1cc6:	ff 90       	pop	r15
    1cc8:	ef 90       	pop	r14
    1cca:	df 90       	pop	r13
    1ccc:	08 95       	ret

00001cce <keyboadMouseButtonHandler>:
    1cce:	4d cd       	rjmp	.-1382   	; 0x176a <changeButtonState>

00001cd0 <sendDBGChar>:
    1cd0:	68 2f       	mov	r22, r24
    1cd2:	80 ea       	ldi	r24, 0xA0	; 160
    1cd4:	99 e0       	ldi	r25, 0x09	; 9
    1cd6:	0c 94 87 19 	jmp	0x330e	; 0x330e <usart_putchar>

00001cda <sendDBGString>:
    1cda:	cf 93       	push	r28
    1cdc:	df 93       	push	r29
    1cde:	ec 01       	movw	r28, r24
    1ce0:	01 c0       	rjmp	.+2      	; 0x1ce4 <sendDBGString+0xa>
    1ce2:	f6 df       	rcall	.-20     	; 0x1cd0 <sendDBGChar>
    1ce4:	89 91       	ld	r24, Y+
    1ce6:	81 11       	cpse	r24, r1
    1ce8:	fc cf       	rjmp	.-8      	; 0x1ce2 <sendDBGString+0x8>
    1cea:	df 91       	pop	r29
    1cec:	cf 91       	pop	r28
    1cee:	08 95       	ret

00001cf0 <sendDBGLine>:
    1cf0:	f4 df       	rcall	.-24     	; 0x1cda <sendDBGString>
    1cf2:	8d e0       	ldi	r24, 0x0D	; 13
    1cf4:	ed df       	rcall	.-38     	; 0x1cd0 <sendDBGChar>
    1cf6:	8a e0       	ldi	r24, 0x0A	; 10
    1cf8:	eb cf       	rjmp	.-42     	; 0x1cd0 <sendDBGChar>

00001cfa <setupDbg>:
    1cfa:	cf 93       	push	r28
    1cfc:	df 93       	push	r29
    1cfe:	cd b7       	in	r28, 0x3d	; 61
    1d00:	de b7       	in	r29, 0x3e	; 62
    1d02:	27 97       	sbiw	r28, 0x07	; 7
    1d04:	cd bf       	out	0x3d, r28	; 61
    1d06:	de bf       	out	0x3e, r29	; 62
    1d08:	87 e0       	ldi	r24, 0x07	; 7
    1d0a:	ef e5       	ldi	r30, 0x5F	; 95
    1d0c:	f0 e2       	ldi	r31, 0x20	; 32
    1d0e:	de 01       	movw	r26, r28
    1d10:	11 96       	adiw	r26, 0x01	; 1
    1d12:	01 90       	ld	r0, Z+
    1d14:	0d 92       	st	X+, r0
    1d16:	8a 95       	dec	r24
    1d18:	e1 f7       	brne	.-8      	; 0x1d12 <setupDbg+0x18>
    1d1a:	60 e1       	ldi	r22, 0x10	; 16
    1d1c:	84 e0       	ldi	r24, 0x04	; 4
    1d1e:	72 d3       	rcall	.+1764   	; 0x2404 <sysclk_enable_module>
    1d20:	e8 ec       	ldi	r30, 0xC8	; 200
    1d22:	f1 e0       	ldi	r31, 0x01	; 1
    1d24:	84 91       	lpm	r24, Z
    1d26:	90 e0       	ldi	r25, 0x00	; 0
    1d28:	d8 df       	rcall	.-80     	; 0x1cda <sendDBGString>
    1d2a:	1b d3       	rcall	.+1590   	; 0x2362 <WatchdogPet>
    1d2c:	be 01       	movw	r22, r28
    1d2e:	6f 5f       	subi	r22, 0xFF	; 255
    1d30:	7f 4f       	sbci	r23, 0xFF	; 255
    1d32:	80 ea       	ldi	r24, 0xA0	; 160
    1d34:	99 e0       	ldi	r25, 0x09	; 9
    1d36:	0e 94 6c 1a 	call	0x34d8	; 0x34d8 <usart_init_rs232>
    1d3a:	88 23       	and	r24, r24
    1d3c:	31 f0       	breq	.+12     	; 0x1d4a <setupDbg+0x50>
    1d3e:	ee ed       	ldi	r30, 0xDE	; 222
    1d40:	f1 e0       	ldi	r31, 0x01	; 1
    1d42:	84 91       	lpm	r24, Z
    1d44:	90 e0       	ldi	r25, 0x00	; 0
    1d46:	d4 df       	rcall	.-88     	; 0x1cf0 <sendDBGLine>
    1d48:	05 c0       	rjmp	.+10     	; 0x1d54 <setupDbg+0x5a>
    1d4a:	ea ed       	ldi	r30, 0xDA	; 218
    1d4c:	f1 e0       	ldi	r31, 0x01	; 1
    1d4e:	84 91       	lpm	r24, Z
    1d50:	90 e0       	ldi	r25, 0x00	; 0
    1d52:	ce df       	rcall	.-100    	; 0x1cf0 <sendDBGLine>
    1d54:	27 96       	adiw	r28, 0x07	; 7
    1d56:	cd bf       	out	0x3d, r28	; 61
    1d58:	de bf       	out	0x3e, r29	; 62
    1d5a:	df 91       	pop	r29
    1d5c:	cf 91       	pop	r28
    1d5e:	08 95       	ret

00001d60 <__portable_avr_delay_cycles>:
    1d60:	61 50       	subi	r22, 0x01	; 1
    1d62:	71 09       	sbc	r23, r1
    1d64:	81 09       	sbc	r24, r1
    1d66:	91 09       	sbc	r25, r1
    1d68:	d9 f7       	brne	.-10     	; 0x1d60 <__portable_avr_delay_cycles>
    1d6a:	08 95       	ret

00001d6c <IsTestMode>:
    1d6c:	e0 e6       	ldi	r30, 0x60	; 96
    1d6e:	f6 e0       	ldi	r31, 0x06	; 6
    1d70:	80 85       	ldd	r24, Z+8	; 0x08
    1d72:	88 1f       	adc	r24, r24
    1d74:	88 27       	eor	r24, r24
    1d76:	88 1f       	adc	r24, r24
    1d78:	08 95       	ret

00001d7a <RunHandTestProcedure>:
    1d7a:	40 e0       	ldi	r20, 0x00	; 0
    1d7c:	60 e0       	ldi	r22, 0x00	; 0
    1d7e:	80 e0       	ldi	r24, 0x00	; 0
    1d80:	50 d1       	rcall	.+672    	; 0x2022 <setLEDValue>
    1d82:	82 e3       	ldi	r24, 0x32	; 50
    1d84:	3f d1       	rcall	.+638    	; 0x2004 <setBlueLEDValue>
    1d86:	60 e0       	ldi	r22, 0x00	; 0
    1d88:	7c e7       	ldi	r23, 0x7C	; 124
    1d8a:	82 e9       	ldi	r24, 0x92	; 146
    1d8c:	90 e0       	ldi	r25, 0x00	; 0
    1d8e:	e8 df       	rcall	.-48     	; 0x1d60 <__portable_avr_delay_cycles>
    1d90:	81 e4       	ldi	r24, 0x41	; 65
    1d92:	98 e2       	ldi	r25, 0x28	; 40
    1d94:	0e 94 c1 1c 	call	0x3982	; 0x3982 <sendBTCmd>
    1d98:	8d e4       	ldi	r24, 0x4D	; 77
    1d9a:	98 e2       	ldi	r25, 0x28	; 40
    1d9c:	0e 94 c1 1c 	call	0x3982	; 0x3982 <sendBTCmd>
    1da0:	1b c0       	rjmp	.+54     	; 0x1dd8 <RunHandTestProcedure+0x5e>
    1da2:	40 e0       	ldi	r20, 0x00	; 0
    1da4:	60 e0       	ldi	r22, 0x00	; 0
    1da6:	82 e3       	ldi	r24, 0x32	; 50
    1da8:	3c d1       	rcall	.+632    	; 0x2022 <setLEDValue>
    1daa:	6a ea       	ldi	r22, 0xAA	; 170
    1dac:	76 e4       	ldi	r23, 0x46	; 70
    1dae:	80 e1       	ldi	r24, 0x10	; 16
    1db0:	90 e0       	ldi	r25, 0x00	; 0
    1db2:	d6 df       	rcall	.-84     	; 0x1d60 <__portable_avr_delay_cycles>
    1db4:	40 e0       	ldi	r20, 0x00	; 0
    1db6:	62 e3       	ldi	r22, 0x32	; 50
    1db8:	80 e0       	ldi	r24, 0x00	; 0
    1dba:	33 d1       	rcall	.+614    	; 0x2022 <setLEDValue>
    1dbc:	6a ea       	ldi	r22, 0xAA	; 170
    1dbe:	76 e4       	ldi	r23, 0x46	; 70
    1dc0:	80 e1       	ldi	r24, 0x10	; 16
    1dc2:	90 e0       	ldi	r25, 0x00	; 0
    1dc4:	cd df       	rcall	.-102    	; 0x1d60 <__portable_avr_delay_cycles>
    1dc6:	42 e3       	ldi	r20, 0x32	; 50
    1dc8:	60 e0       	ldi	r22, 0x00	; 0
    1dca:	80 e0       	ldi	r24, 0x00	; 0
    1dcc:	2a d1       	rcall	.+596    	; 0x2022 <setLEDValue>
    1dce:	6a ea       	ldi	r22, 0xAA	; 170
    1dd0:	76 e4       	ldi	r23, 0x46	; 70
    1dd2:	80 e1       	ldi	r24, 0x10	; 16
    1dd4:	90 e0       	ldi	r25, 0x00	; 0
    1dd6:	c4 df       	rcall	.-120    	; 0x1d60 <__portable_avr_delay_cycles>
    1dd8:	80 91 48 06 	lds	r24, 0x0648
    1ddc:	87 ff       	sbrs	r24, 7
    1dde:	e1 cf       	rjmp	.-62     	; 0x1da2 <RunHandTestProcedure+0x28>
    1de0:	08 95       	ret

00001de2 <ExecuteTest>:
    1de2:	8b df       	rcall	.-234    	; 0x1cfa <setupDbg>
    1de4:	80 e0       	ldi	r24, 0x00	; 0
    1de6:	ce d0       	rcall	.+412    	; 0x1f84 <setupLEDs>
    1de8:	80 91 48 06 	lds	r24, 0x0648
    1dec:	80 91 48 06 	lds	r24, 0x0648
    1df0:	80 91 48 06 	lds	r24, 0x0648
    1df4:	80 91 48 06 	lds	r24, 0x0648
    1df8:	c0 cf       	rjmp	.-128    	; 0x1d7a <RunHandTestProcedure>

00001dfa <__portable_avr_delay_cycles>:
    1dfa:	61 50       	subi	r22, 0x01	; 1
    1dfc:	71 09       	sbc	r23, r1
    1dfe:	81 09       	sbc	r24, r1
    1e00:	91 09       	sbc	r25, r1
    1e02:	d9 f7       	brne	.-10     	; 0x1dfa <__portable_avr_delay_cycles>
    1e04:	08 95       	ret

00001e06 <Wakeup>:
    1e06:	ff 92       	push	r15
    1e08:	0f 93       	push	r16
    1e0a:	1f 93       	push	r17
    1e0c:	cf 93       	push	r28
    1e0e:	df 93       	push	r29
    1e10:	cd b7       	in	r28, 0x3d	; 61
    1e12:	de b7       	in	r29, 0x3e	; 62
    1e14:	28 97       	sbiw	r28, 0x08	; 8
    1e16:	cd bf       	out	0x3d, r28	; 61
    1e18:	de bf       	out	0x3e, r29	; 62
    1e1a:	ac 01       	movw	r20, r24
    1e1c:	60 e0       	ldi	r22, 0x00	; 0
    1e1e:	70 e0       	ldi	r23, 0x00	; 0
    1e20:	8e 01       	movw	r16, r28
    1e22:	0f 5f       	subi	r16, 0xFF	; 255
    1e24:	1f 4f       	sbci	r17, 0xFF	; 255
    1e26:	c8 01       	movw	r24, r16
    1e28:	37 d1       	rcall	.+622    	; 0x2098 <startTimeout>
    1e2a:	0e 94 02 07 	call	0xe04	; 0xe04 <whichConfiguration>
    1e2e:	f8 2e       	mov	r15, r24
    1e30:	05 c0       	rjmp	.+10     	; 0x1e3c <Wakeup+0x36>
    1e32:	88 e0       	ldi	r24, 0x08	; 8
    1e34:	0e 94 6c 03 	call	0x6d8	; 0x6d8 <buttonActivated>
    1e38:	88 23       	and	r24, r24
    1e3a:	49 f0       	breq	.+18     	; 0x1e4e <Wakeup+0x48>
    1e3c:	c8 01       	movw	r24, r16
    1e3e:	45 d1       	rcall	.+650    	; 0x20ca <checkTimeout>
    1e40:	88 23       	and	r24, r24
    1e42:	b9 f3       	breq	.-18     	; 0x1e32 <Wakeup+0x2c>
    1e44:	8f 2d       	mov	r24, r15
    1e46:	0e 94 6c 06 	call	0xcd8	; 0xcd8 <loadConfiguration>
    1e4a:	81 e0       	ldi	r24, 0x01	; 1
    1e4c:	01 c0       	rjmp	.+2      	; 0x1e50 <Wakeup+0x4a>
    1e4e:	80 e0       	ldi	r24, 0x00	; 0
    1e50:	28 96       	adiw	r28, 0x08	; 8
    1e52:	cd bf       	out	0x3d, r28	; 61
    1e54:	de bf       	out	0x3e, r29	; 62
    1e56:	df 91       	pop	r29
    1e58:	cf 91       	pop	r28
    1e5a:	1f 91       	pop	r17
    1e5c:	0f 91       	pop	r16
    1e5e:	ff 90       	pop	r15
    1e60:	08 95       	ret

00001e62 <powerOff>:
    1e62:	7f d2       	rcall	.+1278   	; 0x2362 <WatchdogPet>
    1e64:	80 e0       	ldi	r24, 0x00	; 0
    1e66:	8e d2       	rcall	.+1308   	; 0x2384 <WatchDogEnable>
    1e68:	0e 94 e9 1c 	call	0x39d2	; 0x39d2 <turnBTOff>
    1e6c:	6a ea       	ldi	r22, 0xAA	; 170
    1e6e:	70 ea       	ldi	r23, 0xA0	; 160
    1e70:	81 e0       	ldi	r24, 0x01	; 1
    1e72:	90 e0       	ldi	r25, 0x00	; 0
    1e74:	c2 df       	rcall	.-124    	; 0x1dfa <__portable_avr_delay_cycles>
    1e76:	78 94       	sei
    1e78:	80 91 48 00 	lds	r24, 0x0048
    1e7c:	81 7f       	andi	r24, 0xF1	; 241
    1e7e:	84 60       	ori	r24, 0x04	; 4
    1e80:	80 93 48 00 	sts	0x0048, r24
    1e84:	80 91 48 00 	lds	r24, 0x0048
    1e88:	81 60       	ori	r24, 0x01	; 1
    1e8a:	80 93 48 00 	sts	0x0048, r24
    1e8e:	88 95       	sleep
    1e90:	80 ed       	ldi	r24, 0xD0	; 208
    1e92:	97 e0       	ldi	r25, 0x07	; 7
    1e94:	b8 df       	rcall	.-144    	; 0x1e06 <Wakeup>
    1e96:	88 23       	and	r24, r24
    1e98:	d1 f3       	breq	.-12     	; 0x1e8e <powerOff+0x2c>
    1e9a:	80 91 48 00 	lds	r24, 0x0048
    1e9e:	8e 7f       	andi	r24, 0xFE	; 254
    1ea0:	80 93 48 00 	sts	0x0048, r24
    1ea4:	61 e0       	ldi	r22, 0x01	; 1
    1ea6:	89 e7       	ldi	r24, 0x79	; 121
    1ea8:	90 e0       	ldi	r25, 0x00	; 0
    1eaa:	8e d3       	rcall	.+1820   	; 0x25c8 <ccp_write_io>
    1eac:	ff cf       	rjmp	.-2      	; 0x1eac <powerOff+0x4a>

00001eae <checkForStartUp>:
    1eae:	cf 92       	push	r12
    1eb0:	df 92       	push	r13
    1eb2:	ef 92       	push	r14
    1eb4:	ff 92       	push	r15
    1eb6:	cf 93       	push	r28
    1eb8:	df 93       	push	r29
    1eba:	ec 01       	movw	r28, r24
    1ebc:	52 d2       	rcall	.+1188   	; 0x2362 <WatchdogPet>
    1ebe:	80 e0       	ldi	r24, 0x00	; 0
    1ec0:	61 d2       	rcall	.+1218   	; 0x2384 <WatchDogEnable>
    1ec2:	c1 d0       	rcall	.+386    	; 0x2046 <getSystemTime>
    1ec4:	6b 01       	movw	r12, r22
    1ec6:	7c 01       	movw	r14, r24
    1ec8:	80 91 a8 06 	lds	r24, 0x06A8
    1ecc:	82 fd       	sbrc	r24, 2
    1ece:	fc cf       	rjmp	.-8      	; 0x1ec8 <checkForStartUp+0x1a>
    1ed0:	65 e5       	ldi	r22, 0x55	; 85
    1ed2:	70 ed       	ldi	r23, 0xD0	; 208
    1ed4:	80 e0       	ldi	r24, 0x00	; 0
    1ed6:	90 e0       	ldi	r25, 0x00	; 0
    1ed8:	90 df       	rcall	.-224    	; 0x1dfa <__portable_avr_delay_cycles>
    1eda:	cc 0e       	add	r12, r28
    1edc:	dd 1e       	adc	r13, r29
    1ede:	e1 1c       	adc	r14, r1
    1ee0:	f1 1c       	adc	r15, r1
    1ee2:	b1 d0       	rcall	.+354    	; 0x2046 <getSystemTime>
    1ee4:	c1 e0       	ldi	r28, 0x01	; 1
    1ee6:	6c 15       	cp	r22, r12
    1ee8:	7d 05       	cpc	r23, r13
    1eea:	8e 05       	cpc	r24, r14
    1eec:	9f 05       	cpc	r25, r15
    1eee:	08 f0       	brcs	.+2      	; 0x1ef2 <checkForStartUp+0x44>
    1ef0:	c0 e0       	ldi	r28, 0x00	; 0
    1ef2:	81 e0       	ldi	r24, 0x01	; 1
    1ef4:	47 d2       	rcall	.+1166   	; 0x2384 <WatchDogEnable>
    1ef6:	35 d2       	rcall	.+1130   	; 0x2362 <WatchdogPet>
    1ef8:	8c 2f       	mov	r24, r28
    1efa:	df 91       	pop	r29
    1efc:	cf 91       	pop	r28
    1efe:	ff 90       	pop	r15
    1f00:	ef 90       	pop	r14
    1f02:	df 90       	pop	r13
    1f04:	cf 90       	pop	r12
    1f06:	08 95       	ret

00001f08 <powerOn>:
    1f08:	cf 93       	push	r28
    1f0a:	c8 2f       	mov	r28, r24
    1f0c:	80 ed       	ldi	r24, 0xD0	; 208
    1f0e:	97 e0       	ldi	r25, 0x07	; 7
    1f10:	ce df       	rcall	.-100    	; 0x1eae <checkForStartUp>
    1f12:	81 11       	cpse	r24, r1
    1f14:	02 c0       	rjmp	.+4      	; 0x1f1a <powerOn+0x12>
    1f16:	8c 2f       	mov	r24, r28
    1f18:	a4 df       	rcall	.-184    	; 0x1e62 <powerOff>
    1f1a:	81 e0       	ldi	r24, 0x01	; 1
    1f1c:	cf 91       	pop	r28
    1f1e:	08 95       	ret

00001f20 <pwm_set_duty_cycle_percent>:
    1f20:	cf 93       	push	r28
    1f22:	df 93       	push	r29
    1f24:	ec 01       	movw	r28, r24
    1f26:	2d 81       	ldd	r18, Y+5	; 0x05
    1f28:	3e 81       	ldd	r19, Y+6	; 0x06
    1f2a:	a6 2f       	mov	r26, r22
    1f2c:	b0 e0       	ldi	r27, 0x00	; 0
    1f2e:	0e 94 4a 21 	call	0x4294	; 0x4294 <__umulhisi3>
    1f32:	24 e6       	ldi	r18, 0x64	; 100
    1f34:	30 e0       	ldi	r19, 0x00	; 0
    1f36:	40 e0       	ldi	r20, 0x00	; 0
    1f38:	50 e0       	ldi	r21, 0x00	; 0
    1f3a:	0e 94 28 21 	call	0x4250	; 0x4250 <__udivmodsi4>
    1f3e:	8a 81       	ldd	r24, Y+2	; 0x02
    1f40:	e8 81       	ld	r30, Y
    1f42:	f9 81       	ldd	r31, Y+1	; 0x01
    1f44:	e6 fd       	sbrc	r30, 6
    1f46:	11 c0       	rjmp	.+34     	; 0x1f6a <pwm_set_duty_cycle_percent+0x4a>
    1f48:	82 30       	cpi	r24, 0x02	; 2
    1f4a:	b9 f0       	breq	.+46     	; 0x1f7a <pwm_set_duty_cycle_percent+0x5a>
    1f4c:	18 f4       	brcc	.+6      	; 0x1f54 <pwm_set_duty_cycle_percent+0x34>
    1f4e:	81 30       	cpi	r24, 0x01	; 1
    1f50:	b1 f4       	brne	.+44     	; 0x1f7e <pwm_set_duty_cycle_percent+0x5e>
    1f52:	10 c0       	rjmp	.+32     	; 0x1f74 <pwm_set_duty_cycle_percent+0x54>
    1f54:	83 30       	cpi	r24, 0x03	; 3
    1f56:	19 f0       	breq	.+6      	; 0x1f5e <pwm_set_duty_cycle_percent+0x3e>
    1f58:	84 30       	cpi	r24, 0x04	; 4
    1f5a:	89 f4       	brne	.+34     	; 0x1f7e <pwm_set_duty_cycle_percent+0x5e>
    1f5c:	03 c0       	rjmp	.+6      	; 0x1f64 <pwm_set_duty_cycle_percent+0x44>
    1f5e:	24 af       	std	Z+60, r18	; 0x3c
    1f60:	35 af       	std	Z+61, r19	; 0x3d
    1f62:	0d c0       	rjmp	.+26     	; 0x1f7e <pwm_set_duty_cycle_percent+0x5e>
    1f64:	26 af       	std	Z+62, r18	; 0x3e
    1f66:	37 af       	std	Z+63, r19	; 0x3f
    1f68:	0a c0       	rjmp	.+20     	; 0x1f7e <pwm_set_duty_cycle_percent+0x5e>
    1f6a:	81 30       	cpi	r24, 0x01	; 1
    1f6c:	19 f0       	breq	.+6      	; 0x1f74 <pwm_set_duty_cycle_percent+0x54>
    1f6e:	82 30       	cpi	r24, 0x02	; 2
    1f70:	31 f4       	brne	.+12     	; 0x1f7e <pwm_set_duty_cycle_percent+0x5e>
    1f72:	03 c0       	rjmp	.+6      	; 0x1f7a <pwm_set_duty_cycle_percent+0x5a>
    1f74:	20 af       	std	Z+56, r18	; 0x38
    1f76:	31 af       	std	Z+57, r19	; 0x39
    1f78:	02 c0       	rjmp	.+4      	; 0x1f7e <pwm_set_duty_cycle_percent+0x5e>
    1f7a:	22 af       	std	Z+58, r18	; 0x3a
    1f7c:	33 af       	std	Z+59, r19	; 0x3b
    1f7e:	df 91       	pop	r29
    1f80:	cf 91       	pop	r28
    1f82:	08 95       	ret

00001f84 <setupLEDs>:
    1f84:	80 93 13 2b 	sts	0x2B13, r24
    1f88:	24 ef       	ldi	r18, 0xF4	; 244
    1f8a:	31 e0       	ldi	r19, 0x01	; 1
    1f8c:	42 e0       	ldi	r20, 0x02	; 2
    1f8e:	66 e0       	ldi	r22, 0x06	; 6
    1f90:	84 e1       	ldi	r24, 0x14	; 20
    1f92:	9b e2       	ldi	r25, 0x2B	; 43
    1f94:	0e 94 23 1b 	call	0x3646	; 0x3646 <pwm_init>
    1f98:	24 ef       	ldi	r18, 0xF4	; 244
    1f9a:	31 e0       	ldi	r19, 0x01	; 1
    1f9c:	41 e0       	ldi	r20, 0x01	; 1
    1f9e:	62 e0       	ldi	r22, 0x02	; 2
    1fa0:	8b e1       	ldi	r24, 0x1B	; 27
    1fa2:	9b e2       	ldi	r25, 0x2B	; 43
    1fa4:	0e 94 23 1b 	call	0x3646	; 0x3646 <pwm_init>
    1fa8:	24 ef       	ldi	r18, 0xF4	; 244
    1faa:	31 e0       	ldi	r19, 0x01	; 1
    1fac:	42 e0       	ldi	r20, 0x02	; 2
    1fae:	62 e0       	ldi	r22, 0x02	; 2
    1fb0:	82 e2       	ldi	r24, 0x22	; 34
    1fb2:	9b e2       	ldi	r25, 0x2B	; 43
    1fb4:	0e 94 23 1b 	call	0x3646	; 0x3646 <pwm_init>
    1fb8:	64 e6       	ldi	r22, 0x64	; 100
    1fba:	84 e1       	ldi	r24, 0x14	; 20
    1fbc:	9b e2       	ldi	r25, 0x2B	; 43
    1fbe:	0e 94 ce 1b 	call	0x379c	; 0x379c <pwm_start>
    1fc2:	64 e6       	ldi	r22, 0x64	; 100
    1fc4:	8b e1       	ldi	r24, 0x1B	; 27
    1fc6:	9b e2       	ldi	r25, 0x2B	; 43
    1fc8:	0e 94 ce 1b 	call	0x379c	; 0x379c <pwm_start>
    1fcc:	64 e6       	ldi	r22, 0x64	; 100
    1fce:	82 e2       	ldi	r24, 0x22	; 34
    1fd0:	9b e2       	ldi	r25, 0x2B	; 43
    1fd2:	0c 94 ce 1b 	jmp	0x379c	; 0x379c <pwm_start>

00001fd6 <setRedLEDValue>:
    1fd6:	85 36       	cpi	r24, 0x65	; 101
    1fd8:	08 f0       	brcs	.+2      	; 0x1fdc <setRedLEDValue+0x6>
    1fda:	84 e6       	ldi	r24, 0x64	; 100
    1fdc:	64 e6       	ldi	r22, 0x64	; 100
    1fde:	68 1b       	sub	r22, r24
    1fe0:	84 e1       	ldi	r24, 0x14	; 20
    1fe2:	9b e2       	ldi	r25, 0x2B	; 43
    1fe4:	9d cf       	rjmp	.-198    	; 0x1f20 <pwm_set_duty_cycle_percent>

00001fe6 <setGreenLEDValue>:
    1fe6:	85 36       	cpi	r24, 0x65	; 101
    1fe8:	08 f0       	brcs	.+2      	; 0x1fec <setGreenLEDValue+0x6>
    1fea:	84 e6       	ldi	r24, 0x64	; 100
    1fec:	90 91 13 2b 	lds	r25, 0x2B13
    1ff0:	64 e6       	ldi	r22, 0x64	; 100
    1ff2:	68 1b       	sub	r22, r24
    1ff4:	99 23       	and	r25, r25
    1ff6:	19 f0       	breq	.+6      	; 0x1ffe <setGreenLEDValue+0x18>
    1ff8:	82 e2       	ldi	r24, 0x22	; 34
    1ffa:	9b e2       	ldi	r25, 0x2B	; 43
    1ffc:	91 cf       	rjmp	.-222    	; 0x1f20 <pwm_set_duty_cycle_percent>
    1ffe:	8b e1       	ldi	r24, 0x1B	; 27
    2000:	9b e2       	ldi	r25, 0x2B	; 43
    2002:	8e cf       	rjmp	.-228    	; 0x1f20 <pwm_set_duty_cycle_percent>

00002004 <setBlueLEDValue>:
    2004:	85 36       	cpi	r24, 0x65	; 101
    2006:	08 f0       	brcs	.+2      	; 0x200a <setBlueLEDValue+0x6>
    2008:	84 e6       	ldi	r24, 0x64	; 100
    200a:	90 91 13 2b 	lds	r25, 0x2B13
    200e:	64 e6       	ldi	r22, 0x64	; 100
    2010:	68 1b       	sub	r22, r24
    2012:	99 23       	and	r25, r25
    2014:	19 f0       	breq	.+6      	; 0x201c <setBlueLEDValue+0x18>
    2016:	8b e1       	ldi	r24, 0x1B	; 27
    2018:	9b e2       	ldi	r25, 0x2B	; 43
    201a:	82 cf       	rjmp	.-252    	; 0x1f20 <pwm_set_duty_cycle_percent>
    201c:	82 e2       	ldi	r24, 0x22	; 34
    201e:	9b e2       	ldi	r25, 0x2B	; 43
    2020:	7f cf       	rjmp	.-258    	; 0x1f20 <pwm_set_duty_cycle_percent>

00002022 <setLEDValue>:
    2022:	cf 93       	push	r28
    2024:	df 93       	push	r29
    2026:	00 d0       	rcall	.+0      	; 0x2028 <setLEDValue+0x6>
    2028:	cd b7       	in	r28, 0x3d	; 61
    202a:	de b7       	in	r29, 0x3e	; 62
    202c:	4a 83       	std	Y+2, r20	; 0x02
    202e:	69 83       	std	Y+1, r22	; 0x01
    2030:	d2 df       	rcall	.-92     	; 0x1fd6 <setRedLEDValue>
    2032:	69 81       	ldd	r22, Y+1	; 0x01
    2034:	86 2f       	mov	r24, r22
    2036:	d7 df       	rcall	.-82     	; 0x1fe6 <setGreenLEDValue>
    2038:	4a 81       	ldd	r20, Y+2	; 0x02
    203a:	84 2f       	mov	r24, r20
    203c:	0f 90       	pop	r0
    203e:	0f 90       	pop	r0
    2040:	df 91       	pop	r29
    2042:	cf 91       	pop	r28
    2044:	df cf       	rjmp	.-66     	; 0x2004 <setBlueLEDValue>

00002046 <getSystemTime>:
    2046:	0f 93       	push	r16
    2048:	1f 93       	push	r17
    204a:	8f b7       	in	r24, 0x3f	; 63
    204c:	f8 94       	cli
    204e:	00 91 2b 2b 	lds	r16, 0x2B2B
    2052:	10 91 2c 2b 	lds	r17, 0x2B2C
    2056:	20 91 2d 2b 	lds	r18, 0x2B2D
    205a:	30 91 2e 2b 	lds	r19, 0x2B2E
    205e:	8f bf       	out	0x3f, r24	; 63
    2060:	b8 01       	movw	r22, r16
    2062:	c9 01       	movw	r24, r18
    2064:	1f 91       	pop	r17
    2066:	0f 91       	pop	r16
    2068:	08 95       	ret

0000206a <tickSystemTime>:
    206a:	2f b7       	in	r18, 0x3f	; 63
    206c:	f8 94       	cli
    206e:	80 91 2b 2b 	lds	r24, 0x2B2B
    2072:	90 91 2c 2b 	lds	r25, 0x2B2C
    2076:	a0 91 2d 2b 	lds	r26, 0x2B2D
    207a:	b0 91 2e 2b 	lds	r27, 0x2B2E
    207e:	01 96       	adiw	r24, 0x01	; 1
    2080:	a1 1d       	adc	r26, r1
    2082:	b1 1d       	adc	r27, r1
    2084:	80 93 2b 2b 	sts	0x2B2B, r24
    2088:	90 93 2c 2b 	sts	0x2B2C, r25
    208c:	a0 93 2d 2b 	sts	0x2B2D, r26
    2090:	b0 93 2e 2b 	sts	0x2B2E, r27
    2094:	2f bf       	out	0x3f, r18	; 63
    2096:	08 95       	ret

00002098 <startTimeout>:
    2098:	cf 92       	push	r12
    209a:	df 92       	push	r13
    209c:	ef 92       	push	r14
    209e:	ff 92       	push	r15
    20a0:	cf 93       	push	r28
    20a2:	df 93       	push	r29
    20a4:	ec 01       	movw	r28, r24
    20a6:	6a 01       	movw	r12, r20
    20a8:	7b 01       	movw	r14, r22
    20aa:	cd df       	rcall	.-102    	; 0x2046 <getSystemTime>
    20ac:	68 83       	st	Y, r22
    20ae:	79 83       	std	Y+1, r23	; 0x01
    20b0:	8a 83       	std	Y+2, r24	; 0x02
    20b2:	9b 83       	std	Y+3, r25	; 0x03
    20b4:	cc 82       	std	Y+4, r12	; 0x04
    20b6:	dd 82       	std	Y+5, r13	; 0x05
    20b8:	ee 82       	std	Y+6, r14	; 0x06
    20ba:	ff 82       	std	Y+7, r15	; 0x07
    20bc:	df 91       	pop	r29
    20be:	cf 91       	pop	r28
    20c0:	ff 90       	pop	r15
    20c2:	ef 90       	pop	r14
    20c4:	df 90       	pop	r13
    20c6:	cf 90       	pop	r12
    20c8:	08 95       	ret

000020ca <checkTimeout>:
    20ca:	0f 93       	push	r16
    20cc:	1f 93       	push	r17
    20ce:	cf 93       	push	r28
    20d0:	df 93       	push	r29
    20d2:	ec 01       	movw	r28, r24
    20d4:	8c 81       	ldd	r24, Y+4	; 0x04
    20d6:	9d 81       	ldd	r25, Y+5	; 0x05
    20d8:	ae 81       	ldd	r26, Y+6	; 0x06
    20da:	bf 81       	ldd	r27, Y+7	; 0x07
    20dc:	89 2b       	or	r24, r25
    20de:	8a 2b       	or	r24, r26
    20e0:	8b 2b       	or	r24, r27
    20e2:	c1 f0       	breq	.+48     	; 0x2114 <checkTimeout+0x4a>
    20e4:	b0 df       	rcall	.-160    	; 0x2046 <getSystemTime>
    20e6:	08 81       	ld	r16, Y
    20e8:	19 81       	ldd	r17, Y+1	; 0x01
    20ea:	2a 81       	ldd	r18, Y+2	; 0x02
    20ec:	3b 81       	ldd	r19, Y+3	; 0x03
    20ee:	60 1b       	sub	r22, r16
    20f0:	71 0b       	sbc	r23, r17
    20f2:	82 0b       	sbc	r24, r18
    20f4:	93 0b       	sbc	r25, r19
    20f6:	41 e0       	ldi	r20, 0x01	; 1
    20f8:	50 e0       	ldi	r21, 0x00	; 0
    20fa:	0c 81       	ldd	r16, Y+4	; 0x04
    20fc:	1d 81       	ldd	r17, Y+5	; 0x05
    20fe:	2e 81       	ldd	r18, Y+6	; 0x06
    2100:	3f 81       	ldd	r19, Y+7	; 0x07
    2102:	60 17       	cp	r22, r16
    2104:	71 07       	cpc	r23, r17
    2106:	82 07       	cpc	r24, r18
    2108:	93 07       	cpc	r25, r19
    210a:	10 f4       	brcc	.+4      	; 0x2110 <checkTimeout+0x46>
    210c:	40 e0       	ldi	r20, 0x00	; 0
    210e:	50 e0       	ldi	r21, 0x00	; 0
    2110:	ca 01       	movw	r24, r20
    2112:	02 c0       	rjmp	.+4      	; 0x2118 <checkTimeout+0x4e>
    2114:	80 e0       	ldi	r24, 0x00	; 0
    2116:	90 e0       	ldi	r25, 0x00	; 0
    2118:	81 70       	andi	r24, 0x01	; 1
    211a:	df 91       	pop	r29
    211c:	cf 91       	pop	r28
    211e:	1f 91       	pop	r17
    2120:	0f 91       	pop	r16
    2122:	08 95       	ret

00002124 <cancelTimeout>:
    2124:	fc 01       	movw	r30, r24
    2126:	14 82       	std	Z+4, r1	; 0x04
    2128:	15 82       	std	Z+5, r1	; 0x05
    212a:	16 82       	std	Z+6, r1	; 0x06
    212c:	17 82       	std	Z+7, r1	; 0x07
    212e:	08 95       	ret

00002130 <enableSysTick>:
    2130:	80 e4       	ldi	r24, 0x40	; 64
    2132:	98 e0       	ldi	r25, 0x08	; 8
    2134:	0c 94 d0 18 	jmp	0x31a0	; 0x31a0 <tc_enable>

00002138 <disableSysTick>:
    2138:	80 e4       	ldi	r24, 0x40	; 64
    213a:	98 e0       	ldi	r25, 0x08	; 8
    213c:	0c 94 0b 19 	jmp	0x3216	; 0x3216 <tc_disable>

00002140 <clearSysTickFlag>:
    2140:	e0 e4       	ldi	r30, 0x40	; 64
    2142:	f8 e0       	ldi	r31, 0x08	; 8
    2144:	84 85       	ldd	r24, Z+12	; 0x0c
    2146:	81 60       	ori	r24, 0x01	; 1
    2148:	84 87       	std	Z+12, r24	; 0x0c
    214a:	08 95       	ret

0000214c <setupSysTick>:
    214c:	0f 93       	push	r16
    214e:	1f 93       	push	r17
    2150:	cf 93       	push	r28
    2152:	df 93       	push	r29
    2154:	8c 01       	movw	r16, r24
    2156:	ec df       	rcall	.-40     	; 0x2130 <enableSysTick>
    2158:	c0 e4       	ldi	r28, 0x40	; 64
    215a:	d8 e0       	ldi	r29, 0x08	; 8
    215c:	88 85       	ldd	r24, Y+8	; 0x08
    215e:	8e 6f       	ori	r24, 0xFE	; 254
    2160:	88 87       	std	Y+8, r24	; 0x08
    2162:	89 81       	ldd	r24, Y+1	; 0x01
    2164:	88 7f       	andi	r24, 0xF8	; 248
    2166:	89 83       	std	Y+1, r24	; 0x01
    2168:	18 a2       	std	Y+32, r1	; 0x20
    216a:	19 a2       	std	Y+33, r1	; 0x21
    216c:	80 e0       	ldi	r24, 0x00	; 0
    216e:	9d e7       	ldi	r25, 0x7D	; 125
    2170:	8e a3       	std	Y+38, r24	; 0x26
    2172:	9f a3       	std	Y+39, r25	; 0x27
    2174:	e5 df       	rcall	.-54     	; 0x2140 <clearSysTickFlag>
    2176:	b8 01       	movw	r22, r16
    2178:	80 e4       	ldi	r24, 0x40	; 64
    217a:	98 e0       	ldi	r25, 0x08	; 8
    217c:	0e 94 46 19 	call	0x328c	; 0x328c <tc_set_overflow_interrupt_callback>
    2180:	8e 81       	ldd	r24, Y+6	; 0x06
    2182:	8c 7f       	andi	r24, 0xFC	; 252
    2184:	8e 83       	std	Y+6, r24	; 0x06
    2186:	8e 81       	ldd	r24, Y+6	; 0x06
    2188:	81 60       	ori	r24, 0x01	; 1
    218a:	8e 83       	std	Y+6, r24	; 0x06
    218c:	88 81       	ld	r24, Y
    218e:	80 7f       	andi	r24, 0xF0	; 240
    2190:	81 60       	ori	r24, 0x01	; 1
    2192:	88 83       	st	Y, r24
    2194:	df 91       	pop	r29
    2196:	cf 91       	pop	r28
    2198:	1f 91       	pop	r17
    219a:	0f 91       	pop	r16
    219c:	cd cf       	rjmp	.-102    	; 0x2138 <disableSysTick>

0000219e <setupUsb>:
    219e:	60 e1       	ldi	r22, 0x10	; 16
    21a0:	83 e0       	ldi	r24, 0x03	; 3
    21a2:	30 d1       	rcall	.+608    	; 0x2404 <sysclk_enable_module>
    21a4:	89 e5       	ldi	r24, 0x59	; 89
    21a6:	98 e2       	ldi	r25, 0x28	; 40
    21a8:	98 dd       	rcall	.-1232   	; 0x1cda <sendDBGString>
    21aa:	db d0       	rcall	.+438    	; 0x2362 <WatchdogPet>
    21ac:	64 e5       	ldi	r22, 0x54	; 84
    21ae:	70 e2       	ldi	r23, 0x20	; 32
    21b0:	80 ea       	ldi	r24, 0xA0	; 160
    21b2:	98 e0       	ldi	r25, 0x08	; 8
    21b4:	0e 94 6c 1a 	call	0x34d8	; 0x34d8 <usart_init_rs232>
    21b8:	88 23       	and	r24, r24
    21ba:	21 f0       	breq	.+8      	; 0x21c4 <setupUsb+0x26>
    21bc:	89 e6       	ldi	r24, 0x69	; 105
    21be:	98 e2       	ldi	r25, 0x28	; 40
    21c0:	97 dd       	rcall	.-1234   	; 0x1cf0 <sendDBGLine>
    21c2:	03 c0       	rjmp	.+6      	; 0x21ca <setupUsb+0x2c>
    21c4:	8e e6       	ldi	r24, 0x6E	; 110
    21c6:	98 e2       	ldi	r25, 0x28	; 40
    21c8:	93 dd       	rcall	.-1242   	; 0x1cf0 <sendDBGLine>
    21ca:	40 e4       	ldi	r20, 0x40	; 64
    21cc:	65 e3       	ldi	r22, 0x35	; 53
    21ce:	7b e2       	ldi	r23, 0x2B	; 43
    21d0:	8f e2       	ldi	r24, 0x2F	; 47
    21d2:	9b e2       	ldi	r25, 0x2B	; 43
    21d4:	0e 94 e2 03 	call	0x7c4	; 0x7c4 <initCB>
    21d8:	40 e2       	ldi	r20, 0x20	; 32
    21da:	6b e7       	ldi	r22, 0x7B	; 123
    21dc:	7b e2       	ldi	r23, 0x2B	; 43
    21de:	85 e7       	ldi	r24, 0x75	; 117
    21e0:	9b e2       	ldi	r25, 0x2B	; 43
    21e2:	0e 94 e2 03 	call	0x7c4	; 0x7c4 <initCB>
    21e6:	80 91 a3 08 	lds	r24, 0x08A3
    21ea:	8f 7c       	andi	r24, 0xCF	; 207
    21ec:	80 61       	ori	r24, 0x10	; 16
    21ee:	80 93 a3 08 	sts	0x08A3, r24
    21f2:	08 95       	ret

000021f4 <sendUSBChar>:
    21f4:	cf 93       	push	r28
    21f6:	c8 2f       	mov	r28, r24
    21f8:	6c 2f       	mov	r22, r28
    21fa:	85 e7       	ldi	r24, 0x75	; 117
    21fc:	9b e2       	ldi	r25, 0x2B	; 43
    21fe:	0e 94 eb 03 	call	0x7d6	; 0x7d6 <addByteToCB>
    2202:	88 23       	and	r24, r24
    2204:	c9 f3       	breq	.-14     	; 0x21f8 <sendUSBChar+0x4>
    2206:	80 91 a3 08 	lds	r24, 0x08A3
    220a:	8c 7f       	andi	r24, 0xFC	; 252
    220c:	81 60       	ori	r24, 0x01	; 1
    220e:	80 93 a3 08 	sts	0x08A3, r24
    2212:	cf 91       	pop	r28
    2214:	08 95       	ret

00002216 <sendUSBString>:
    2216:	0f 93       	push	r16
    2218:	1f 93       	push	r17
    221a:	cf 93       	push	r28
    221c:	df 93       	push	r29
    221e:	1f 92       	push	r1
    2220:	cd b7       	in	r28, 0x3d	; 61
    2222:	de b7       	in	r29, 0x3e	; 62
    2224:	8c 01       	movw	r16, r24
    2226:	03 c0       	rjmp	.+6      	; 0x222e <sendUSBString+0x18>
    2228:	69 83       	std	Y+1, r22	; 0x01
    222a:	e4 df       	rcall	.-56     	; 0x21f4 <sendUSBChar>
    222c:	69 81       	ldd	r22, Y+1	; 0x01
    222e:	f8 01       	movw	r30, r16
    2230:	81 91       	ld	r24, Z+
    2232:	8f 01       	movw	r16, r30
    2234:	81 11       	cpse	r24, r1
    2236:	f8 cf       	rjmp	.-16     	; 0x2228 <sendUSBString+0x12>
    2238:	66 23       	and	r22, r22
    223a:	31 f0       	breq	.+12     	; 0x2248 <sendUSBString+0x32>
    223c:	0f 90       	pop	r0
    223e:	df 91       	pop	r29
    2240:	cf 91       	pop	r28
    2242:	1f 91       	pop	r17
    2244:	0f 91       	pop	r16
    2246:	d6 cf       	rjmp	.-84     	; 0x21f4 <sendUSBChar>
    2248:	0f 90       	pop	r0
    224a:	df 91       	pop	r29
    224c:	cf 91       	pop	r28
    224e:	1f 91       	pop	r17
    2250:	0f 91       	pop	r16
    2252:	08 95       	ret

00002254 <sendUSBLine>:
    2254:	60 e0       	ldi	r22, 0x00	; 0
    2256:	df df       	rcall	.-66     	; 0x2216 <sendUSBString>
    2258:	8d e0       	ldi	r24, 0x0D	; 13
    225a:	cc df       	rcall	.-104    	; 0x21f4 <sendUSBChar>
    225c:	8a e0       	ldi	r24, 0x0A	; 10
    225e:	ca cf       	rjmp	.-108    	; 0x21f4 <sendUSBChar>

00002260 <recvUSBString>:
    2260:	46 2f       	mov	r20, r22
    2262:	bc 01       	movw	r22, r24
    2264:	8f e2       	ldi	r24, 0x2F	; 47
    2266:	9b e2       	ldi	r25, 0x2B	; 43
    2268:	0c 94 50 04 	jmp	0x8a0	; 0x8a0 <readStringFromCB>

0000226c <__vector_25>:
    226c:	1f 92       	push	r1
    226e:	0f 92       	push	r0
    2270:	0f b6       	in	r0, 0x3f	; 63
    2272:	0f 92       	push	r0
    2274:	11 24       	eor	r1, r1
    2276:	0b b6       	in	r0, 0x3b	; 59
    2278:	0f 92       	push	r0
    227a:	2f 93       	push	r18
    227c:	3f 93       	push	r19
    227e:	4f 93       	push	r20
    2280:	5f 93       	push	r21
    2282:	6f 93       	push	r22
    2284:	7f 93       	push	r23
    2286:	8f 93       	push	r24
    2288:	9f 93       	push	r25
    228a:	af 93       	push	r26
    228c:	bf 93       	push	r27
    228e:	ef 93       	push	r30
    2290:	ff 93       	push	r31
    2292:	60 91 a0 08 	lds	r22, 0x08A0
    2296:	6b 31       	cpi	r22, 0x1B	; 27
    2298:	29 f4       	brne	.+10     	; 0x22a4 <__vector_25+0x38>
    229a:	61 e0       	ldi	r22, 0x01	; 1
    229c:	89 e7       	ldi	r24, 0x79	; 121
    229e:	90 e0       	ldi	r25, 0x00	; 0
    22a0:	93 d1       	rcall	.+806    	; 0x25c8 <ccp_write_io>
    22a2:	ff cf       	rjmp	.-2      	; 0x22a2 <__vector_25+0x36>
    22a4:	8f e2       	ldi	r24, 0x2F	; 47
    22a6:	9b e2       	ldi	r25, 0x2B	; 43
    22a8:	0e 94 eb 03 	call	0x7d6	; 0x7d6 <addByteToCB>
    22ac:	80 e8       	ldi	r24, 0x80	; 128
    22ae:	80 93 a1 08 	sts	0x08A1, r24
    22b2:	ff 91       	pop	r31
    22b4:	ef 91       	pop	r30
    22b6:	bf 91       	pop	r27
    22b8:	af 91       	pop	r26
    22ba:	9f 91       	pop	r25
    22bc:	8f 91       	pop	r24
    22be:	7f 91       	pop	r23
    22c0:	6f 91       	pop	r22
    22c2:	5f 91       	pop	r21
    22c4:	4f 91       	pop	r20
    22c6:	3f 91       	pop	r19
    22c8:	2f 91       	pop	r18
    22ca:	0f 90       	pop	r0
    22cc:	0b be       	out	0x3b, r0	; 59
    22ce:	0f 90       	pop	r0
    22d0:	0f be       	out	0x3f, r0	; 63
    22d2:	0f 90       	pop	r0
    22d4:	1f 90       	pop	r1
    22d6:	18 95       	reti

000022d8 <__vector_26>:
    22d8:	1f 92       	push	r1
    22da:	0f 92       	push	r0
    22dc:	0f b6       	in	r0, 0x3f	; 63
    22de:	0f 92       	push	r0
    22e0:	11 24       	eor	r1, r1
    22e2:	0b b6       	in	r0, 0x3b	; 59
    22e4:	0f 92       	push	r0
    22e6:	2f 93       	push	r18
    22e8:	3f 93       	push	r19
    22ea:	4f 93       	push	r20
    22ec:	5f 93       	push	r21
    22ee:	6f 93       	push	r22
    22f0:	7f 93       	push	r23
    22f2:	8f 93       	push	r24
    22f4:	9f 93       	push	r25
    22f6:	af 93       	push	r26
    22f8:	bf 93       	push	r27
    22fa:	ef 93       	push	r30
    22fc:	ff 93       	push	r31
    22fe:	cf 93       	push	r28
    2300:	df 93       	push	r29
    2302:	1f 92       	push	r1
    2304:	cd b7       	in	r28, 0x3d	; 61
    2306:	de b7       	in	r29, 0x3e	; 62
    2308:	be 01       	movw	r22, r28
    230a:	6f 5f       	subi	r22, 0xFF	; 255
    230c:	7f 4f       	sbci	r23, 0xFF	; 255
    230e:	85 e7       	ldi	r24, 0x75	; 117
    2310:	9b e2       	ldi	r25, 0x2B	; 43
    2312:	0e 94 09 04 	call	0x812	; 0x812 <readByteFromCB>
    2316:	88 23       	and	r24, r24
    2318:	21 f0       	breq	.+8      	; 0x2322 <__vector_26+0x4a>
    231a:	89 81       	ldd	r24, Y+1	; 0x01
    231c:	80 93 a0 08 	sts	0x08A0, r24
    2320:	05 c0       	rjmp	.+10     	; 0x232c <__vector_26+0x54>
    2322:	80 91 a3 08 	lds	r24, 0x08A3
    2326:	8c 7f       	andi	r24, 0xFC	; 252
    2328:	80 93 a3 08 	sts	0x08A3, r24
    232c:	0f 90       	pop	r0
    232e:	df 91       	pop	r29
    2330:	cf 91       	pop	r28
    2332:	ff 91       	pop	r31
    2334:	ef 91       	pop	r30
    2336:	bf 91       	pop	r27
    2338:	af 91       	pop	r26
    233a:	9f 91       	pop	r25
    233c:	8f 91       	pop	r24
    233e:	7f 91       	pop	r23
    2340:	6f 91       	pop	r22
    2342:	5f 91       	pop	r21
    2344:	4f 91       	pop	r20
    2346:	3f 91       	pop	r19
    2348:	2f 91       	pop	r18
    234a:	0f 90       	pop	r0
    234c:	0b be       	out	0x3b, r0	; 59
    234e:	0f 90       	pop	r0
    2350:	0f be       	out	0x3f, r0	; 63
    2352:	0f 90       	pop	r0
    2354:	1f 90       	pop	r1
    2356:	18 95       	reti

00002358 <WatchdogInit>:
    2358:	8a e0       	ldi	r24, 0x0A	; 10
    235a:	0e 94 9d 1a 	call	0x353a	; 0x353a <wdt_set_timeout_period>
    235e:	0c 94 b3 1a 	jmp	0x3566	; 0x3566 <wdt_enable>

00002362 <WatchdogPet>:
    2362:	82 e7       	ldi	r24, 0x72	; 114
    2364:	98 e2       	ldi	r25, 0x28	; 40
    2366:	b9 dc       	rcall	.-1678   	; 0x1cda <sendDBGString>
    2368:	a8 95       	wdr
    236a:	08 95       	ret

0000236c <WatchdogValidate>:
    236c:	80 91 5b 20 	lds	r24, 0x205B
    2370:	90 91 5c 20 	lds	r25, 0x205C
    2374:	00 97       	sbiw	r24, 0x00	; 0
    2376:	29 f0       	breq	.+10     	; 0x2382 <WatchdogValidate+0x16>
    2378:	01 97       	sbiw	r24, 0x01	; 1
    237a:	80 93 5b 20 	sts	0x205B, r24
    237e:	90 93 5c 20 	sts	0x205C, r25
    2382:	ef cf       	rjmp	.-34     	; 0x2362 <WatchdogPet>

00002384 <WatchDogEnable>:
    2384:	81 11       	cpse	r24, r1
    2386:	0c 94 b3 1a 	jmp	0x3566	; 0x3566 <wdt_enable>
    238a:	0c 94 ac 1a 	jmp	0x3558	; 0x3558 <wdt_disable>

0000238e <WatchdogTaskRunning>:
    238e:	88 23       	and	r24, r24
    2390:	19 f0       	breq	.+6      	; 0x2398 <WatchdogTaskRunning+0xa>
    2392:	82 30       	cpi	r24, 0x02	; 2
    2394:	71 f4       	brne	.+28     	; 0x23b2 <WatchdogTaskRunning+0x24>
    2396:	07 c0       	rjmp	.+14     	; 0x23a6 <WatchdogTaskRunning+0x18>
    2398:	84 e6       	ldi	r24, 0x64	; 100
    239a:	90 e0       	ldi	r25, 0x00	; 0
    239c:	80 93 5b 20 	sts	0x205B, r24
    23a0:	90 93 5c 20 	sts	0x205C, r25
    23a4:	08 95       	ret
    23a6:	84 e6       	ldi	r24, 0x64	; 100
    23a8:	90 e0       	ldi	r25, 0x00	; 0
    23aa:	80 93 5d 20 	sts	0x205D, r24
    23ae:	90 93 5e 20 	sts	0x205E, r25
    23b2:	08 95       	ret

000023b4 <sysclk_init>:
    23b4:	8f ef       	ldi	r24, 0xFF	; 255
    23b6:	80 93 70 00 	sts	0x0070, r24
    23ba:	80 93 71 00 	sts	0x0071, r24
    23be:	80 93 72 00 	sts	0x0072, r24
    23c2:	80 93 73 00 	sts	0x0073, r24
    23c6:	80 93 74 00 	sts	0x0074, r24
    23ca:	80 93 75 00 	sts	0x0075, r24
    23ce:	80 93 76 00 	sts	0x0076, r24
    23d2:	9f b7       	in	r25, 0x3f	; 63
    23d4:	f8 94       	cli
    23d6:	80 91 50 00 	lds	r24, 0x0050
    23da:	82 60       	ori	r24, 0x02	; 2
    23dc:	80 93 50 00 	sts	0x0050, r24
    23e0:	9f bf       	out	0x3f, r25	; 63
    23e2:	80 91 51 00 	lds	r24, 0x0051
    23e6:	81 ff       	sbrs	r24, 1
    23e8:	fc cf       	rjmp	.-8      	; 0x23e2 <sysclk_init+0x2e>
    23ea:	61 e0       	ldi	r22, 0x01	; 1
    23ec:	80 e4       	ldi	r24, 0x40	; 64
    23ee:	90 e0       	ldi	r25, 0x00	; 0
    23f0:	eb d0       	rcall	.+470    	; 0x25c8 <ccp_write_io>
    23f2:	9f b7       	in	r25, 0x3f	; 63
    23f4:	f8 94       	cli
    23f6:	80 91 50 00 	lds	r24, 0x0050
    23fa:	8e 7f       	andi	r24, 0xFE	; 254
    23fc:	80 93 50 00 	sts	0x0050, r24
    2400:	9f bf       	out	0x3f, r25	; 63
    2402:	08 95       	ret

00002404 <sysclk_enable_module>:
    2404:	9f b7       	in	r25, 0x3f	; 63
    2406:	f8 94       	cli
    2408:	e8 2f       	mov	r30, r24
    240a:	f0 e0       	ldi	r31, 0x00	; 0
    240c:	e0 59       	subi	r30, 0x90	; 144
    240e:	ff 4f       	sbci	r31, 0xFF	; 255
    2410:	60 95       	com	r22
    2412:	80 81       	ld	r24, Z
    2414:	86 23       	and	r24, r22
    2416:	80 83       	st	Z, r24
    2418:	9f bf       	out	0x3f, r25	; 63
    241a:	08 95       	ret

0000241c <sysclk_disable_module>:
    241c:	9f b7       	in	r25, 0x3f	; 63
    241e:	f8 94       	cli
    2420:	e8 2f       	mov	r30, r24
    2422:	f0 e0       	ldi	r31, 0x00	; 0
    2424:	e0 59       	subi	r30, 0x90	; 144
    2426:	ff 4f       	sbci	r31, 0xFF	; 255
    2428:	80 81       	ld	r24, Z
    242a:	86 2b       	or	r24, r22
    242c:	80 83       	st	Z, r24
    242e:	9f bf       	out	0x3f, r25	; 63
    2430:	08 95       	ret

00002432 <adc_enable_clock>:
    2432:	81 15       	cp	r24, r1
    2434:	92 40       	sbci	r25, 0x02	; 2
    2436:	59 f4       	brne	.+22     	; 0x244e <adc_enable_clock+0x1c>
    2438:	80 91 9b 2b 	lds	r24, 0x2B9B
    243c:	98 2f       	mov	r25, r24
    243e:	9f 5f       	subi	r25, 0xFF	; 255
    2440:	90 93 9b 2b 	sts	0x2B9B, r25
    2444:	81 11       	cpse	r24, r1
    2446:	03 c0       	rjmp	.+6      	; 0x244e <adc_enable_clock+0x1c>
    2448:	62 e0       	ldi	r22, 0x02	; 2
    244a:	81 e0       	ldi	r24, 0x01	; 1
    244c:	db cf       	rjmp	.-74     	; 0x2404 <sysclk_enable_module>
    244e:	08 95       	ret

00002450 <adc_disable_clock>:
    2450:	81 15       	cp	r24, r1
    2452:	92 40       	sbci	r25, 0x02	; 2
    2454:	51 f4       	brne	.+20     	; 0x246a <adc_disable_clock+0x1a>
    2456:	80 91 9b 2b 	lds	r24, 0x2B9B
    245a:	81 50       	subi	r24, 0x01	; 1
    245c:	80 93 9b 2b 	sts	0x2B9B, r24
    2460:	81 11       	cpse	r24, r1
    2462:	03 c0       	rjmp	.+6      	; 0x246a <adc_disable_clock+0x1a>
    2464:	62 e0       	ldi	r22, 0x02	; 2
    2466:	81 e0       	ldi	r24, 0x01	; 1
    2468:	d9 cf       	rjmp	.-78     	; 0x241c <sysclk_disable_module>
    246a:	08 95       	ret

0000246c <adc_enable>:
    246c:	1f 93       	push	r17
    246e:	cf 93       	push	r28
    2470:	df 93       	push	r29
    2472:	ec 01       	movw	r28, r24
    2474:	1f b7       	in	r17, 0x3f	; 63
    2476:	f8 94       	cli
    2478:	dc df       	rcall	.-72     	; 0x2432 <adc_enable_clock>
    247a:	88 81       	ld	r24, Y
    247c:	81 60       	ori	r24, 0x01	; 1
    247e:	88 83       	st	Y, r24
    2480:	1f bf       	out	0x3f, r17	; 63
    2482:	9f b7       	in	r25, 0x3f	; 63
    2484:	f8 94       	cli
    2486:	ed e6       	ldi	r30, 0x6D	; 109
    2488:	fc e2       	ldi	r31, 0x2C	; 44
    248a:	80 81       	ld	r24, Z
    248c:	8f 5f       	subi	r24, 0xFF	; 255
    248e:	80 83       	st	Z, r24
    2490:	9f bf       	out	0x3f, r25	; 63
    2492:	df 91       	pop	r29
    2494:	cf 91       	pop	r28
    2496:	1f 91       	pop	r17
    2498:	08 95       	ret

0000249a <adc_write_configuration>:
    249a:	ff 92       	push	r15
    249c:	0f 93       	push	r16
    249e:	1f 93       	push	r17
    24a0:	cf 93       	push	r28
    24a2:	df 93       	push	r29
    24a4:	eb 01       	movw	r28, r22
    24a6:	81 15       	cp	r24, r1
    24a8:	92 40       	sbci	r25, 0x02	; 2
    24aa:	a1 f5       	brne	.+104    	; 0x2514 <adc_write_configuration+0x7a>
    24ac:	61 e2       	ldi	r22, 0x21	; 33
    24ae:	70 e0       	ldi	r23, 0x00	; 0
    24b0:	82 e0       	ldi	r24, 0x02	; 2
    24b2:	80 d1       	rcall	.+768    	; 0x27b4 <nvm_read_byte>
    24b4:	18 2f       	mov	r17, r24
    24b6:	60 e2       	ldi	r22, 0x20	; 32
    24b8:	70 e0       	ldi	r23, 0x00	; 0
    24ba:	82 e0       	ldi	r24, 0x02	; 2
    24bc:	7b d1       	rcall	.+758    	; 0x27b4 <nvm_read_byte>
    24be:	31 2f       	mov	r19, r17
    24c0:	20 e0       	ldi	r18, 0x00	; 0
    24c2:	89 01       	movw	r16, r18
    24c4:	08 2b       	or	r16, r24
    24c6:	ff b6       	in	r15, 0x3f	; 63
    24c8:	f8 94       	cli
    24ca:	80 e0       	ldi	r24, 0x00	; 0
    24cc:	92 e0       	ldi	r25, 0x02	; 2
    24ce:	b1 df       	rcall	.-158    	; 0x2432 <adc_enable_clock>
    24d0:	20 91 00 02 	lds	r18, 0x0200
    24d4:	21 70       	andi	r18, 0x01	; 1
    24d6:	82 e0       	ldi	r24, 0x02	; 2
    24d8:	80 93 00 02 	sts	0x0200, r24
    24dc:	00 93 0c 02 	sts	0x020C, r16
    24e0:	10 93 0d 02 	sts	0x020D, r17
    24e4:	8c 81       	ldd	r24, Y+4	; 0x04
    24e6:	9d 81       	ldd	r25, Y+5	; 0x05
    24e8:	80 93 18 02 	sts	0x0218, r24
    24ec:	90 93 19 02 	sts	0x0219, r25
    24f0:	89 81       	ldd	r24, Y+1	; 0x01
    24f2:	80 93 02 02 	sts	0x0202, r24
    24f6:	8b 81       	ldd	r24, Y+3	; 0x03
    24f8:	80 93 04 02 	sts	0x0204, r24
    24fc:	8a 81       	ldd	r24, Y+2	; 0x02
    24fe:	80 93 03 02 	sts	0x0203, r24
    2502:	88 81       	ld	r24, Y
    2504:	80 93 01 02 	sts	0x0201, r24
    2508:	20 93 00 02 	sts	0x0200, r18
    250c:	80 e0       	ldi	r24, 0x00	; 0
    250e:	92 e0       	ldi	r25, 0x02	; 2
    2510:	9f df       	rcall	.-194    	; 0x2450 <adc_disable_clock>
    2512:	ff be       	out	0x3f, r15	; 63
    2514:	df 91       	pop	r29
    2516:	cf 91       	pop	r28
    2518:	1f 91       	pop	r17
    251a:	0f 91       	pop	r16
    251c:	ff 90       	pop	r15
    251e:	08 95       	ret

00002520 <adc_read_configuration>:
    2520:	ff 92       	push	r15
    2522:	0f 93       	push	r16
    2524:	1f 93       	push	r17
    2526:	cf 93       	push	r28
    2528:	df 93       	push	r29
    252a:	ec 01       	movw	r28, r24
    252c:	8b 01       	movw	r16, r22
    252e:	ff b6       	in	r15, 0x3f	; 63
    2530:	f8 94       	cli
    2532:	7f df       	rcall	.-258    	; 0x2432 <adc_enable_clock>
    2534:	88 8d       	ldd	r24, Y+24	; 0x18
    2536:	99 8d       	ldd	r25, Y+25	; 0x19
    2538:	f8 01       	movw	r30, r16
    253a:	84 83       	std	Z+4, r24	; 0x04
    253c:	95 83       	std	Z+5, r25	; 0x05
    253e:	8a 81       	ldd	r24, Y+2	; 0x02
    2540:	81 83       	std	Z+1, r24	; 0x01
    2542:	8c 81       	ldd	r24, Y+4	; 0x04
    2544:	83 83       	std	Z+3, r24	; 0x03
    2546:	8b 81       	ldd	r24, Y+3	; 0x03
    2548:	82 83       	std	Z+2, r24	; 0x02
    254a:	89 81       	ldd	r24, Y+1	; 0x01
    254c:	80 83       	st	Z, r24
    254e:	ce 01       	movw	r24, r28
    2550:	7f df       	rcall	.-258    	; 0x2450 <adc_disable_clock>
    2552:	ff be       	out	0x3f, r15	; 63
    2554:	df 91       	pop	r29
    2556:	cf 91       	pop	r28
    2558:	1f 91       	pop	r17
    255a:	0f 91       	pop	r16
    255c:	ff 90       	pop	r15
    255e:	08 95       	ret

00002560 <adcch_write_configuration>:
    2560:	ff 92       	push	r15
    2562:	0f 93       	push	r16
    2564:	1f 93       	push	r17
    2566:	cf 93       	push	r28
    2568:	df 93       	push	r29
    256a:	ec 01       	movw	r28, r24
    256c:	8a 01       	movw	r16, r20
    256e:	ff b6       	in	r15, 0x3f	; 63
    2570:	f8 94       	cli
    2572:	5f df       	rcall	.-322    	; 0x2432 <adc_enable_clock>
    2574:	f8 01       	movw	r30, r16
    2576:	80 81       	ld	r24, Z
    2578:	88 a3       	std	Y+32, r24	; 0x20
    257a:	82 81       	ldd	r24, Z+2	; 0x02
    257c:	8a a3       	std	Y+34, r24	; 0x22
    257e:	81 81       	ldd	r24, Z+1	; 0x01
    2580:	89 a3       	std	Y+33, r24	; 0x21
    2582:	ce 01       	movw	r24, r28
    2584:	65 df       	rcall	.-310    	; 0x2450 <adc_disable_clock>
    2586:	ff be       	out	0x3f, r15	; 63
    2588:	df 91       	pop	r29
    258a:	cf 91       	pop	r28
    258c:	1f 91       	pop	r17
    258e:	0f 91       	pop	r16
    2590:	ff 90       	pop	r15
    2592:	08 95       	ret

00002594 <adcch_read_configuration>:
    2594:	ff 92       	push	r15
    2596:	0f 93       	push	r16
    2598:	1f 93       	push	r17
    259a:	cf 93       	push	r28
    259c:	df 93       	push	r29
    259e:	ec 01       	movw	r28, r24
    25a0:	8a 01       	movw	r16, r20
    25a2:	ff b6       	in	r15, 0x3f	; 63
    25a4:	f8 94       	cli
    25a6:	45 df       	rcall	.-374    	; 0x2432 <adc_enable_clock>
    25a8:	88 a1       	ldd	r24, Y+32	; 0x20
    25aa:	f8 01       	movw	r30, r16
    25ac:	80 83       	st	Z, r24
    25ae:	8a a1       	ldd	r24, Y+34	; 0x22
    25b0:	82 83       	std	Z+2, r24	; 0x02
    25b2:	89 a1       	ldd	r24, Y+33	; 0x21
    25b4:	81 83       	std	Z+1, r24	; 0x01
    25b6:	ce 01       	movw	r24, r28
    25b8:	4b df       	rcall	.-362    	; 0x2450 <adc_disable_clock>
    25ba:	ff be       	out	0x3f, r15	; 63
    25bc:	df 91       	pop	r29
    25be:	cf 91       	pop	r28
    25c0:	1f 91       	pop	r17
    25c2:	0f 91       	pop	r16
    25c4:	ff 90       	pop	r15
    25c6:	08 95       	ret

000025c8 <ccp_write_io>:

	PUBLIC_FUNCTION(ccp_write_io)

#if defined(__GNUC__)

	out     RAMPZ, r1               // Reset bits 23:16 of Z
    25c8:	1b be       	out	0x3b, r1	; 59
	movw    r30, r24                // Load addr into Z
    25ca:	fc 01       	movw	r30, r24
	ldi     r18, CCP_IOREG          // Load magic CCP value
    25cc:	28 ed       	ldi	r18, 0xD8	; 216
	out     CCP, r18                // Start CCP handshake
    25ce:	24 bf       	out	0x34, r18	; 52
	st      Z, r22                  // Write value to I/O register
    25d0:	60 83       	st	Z, r22
	ret                             // Return to caller
    25d2:	08 95       	ret

000025d4 <nvm_wait_until_ready>:
    25d4:	80 91 cf 01 	lds	r24, 0x01CF
    25d8:	87 fd       	sbrc	r24, 7
    25da:	fc cf       	rjmp	.-8      	; 0x25d4 <nvm_wait_until_ready>
    25dc:	08 95       	ret

000025de <nvm_issue_command>:
    25de:	1f 93       	push	r17
    25e0:	cf 93       	push	r28
    25e2:	df 93       	push	r29
    25e4:	c0 ec       	ldi	r28, 0xC0	; 192
    25e6:	d1 e0       	ldi	r29, 0x01	; 1
    25e8:	1a 85       	ldd	r17, Y+10	; 0x0a
    25ea:	8a 87       	std	Y+10, r24	; 0x0a
    25ec:	61 e0       	ldi	r22, 0x01	; 1
    25ee:	8b ec       	ldi	r24, 0xCB	; 203
    25f0:	91 e0       	ldi	r25, 0x01	; 1
    25f2:	ea df       	rcall	.-44     	; 0x25c8 <ccp_write_io>
    25f4:	1a 87       	std	Y+10, r17	; 0x0a
    25f6:	df 91       	pop	r29
    25f8:	cf 91       	pop	r28
    25fa:	1f 91       	pop	r17
    25fc:	08 95       	ret

000025fe <nvm_eeprom_read_buffer>:
    25fe:	ef 92       	push	r14
    2600:	ff 92       	push	r15
    2602:	0f 93       	push	r16
    2604:	1f 93       	push	r17
    2606:	cf 93       	push	r28
    2608:	df 93       	push	r29
    260a:	00 d0       	rcall	.+0      	; 0x260c <nvm_eeprom_read_buffer+0xe>
    260c:	00 d0       	rcall	.+0      	; 0x260e <nvm_eeprom_read_buffer+0x10>
    260e:	cd b7       	in	r28, 0x3d	; 61
    2610:	de b7       	in	r29, 0x3e	; 62
    2612:	8c 01       	movw	r16, r24
    2614:	cb 01       	movw	r24, r22
    2616:	4b 83       	std	Y+3, r20	; 0x03
    2618:	5c 83       	std	Y+4, r21	; 0x04
    261a:	69 83       	std	Y+1, r22	; 0x01
    261c:	9a 83       	std	Y+2, r25	; 0x02
    261e:	da df       	rcall	.-76     	; 0x25d4 <nvm_wait_until_ready>
    2620:	8c ec       	ldi	r24, 0xCC	; 204
    2622:	e8 2e       	mov	r14, r24
    2624:	ff 24       	eor	r15, r15
    2626:	f3 94       	inc	r15
    2628:	f7 01       	movw	r30, r14
    262a:	20 81       	ld	r18, Z
    262c:	28 60       	ori	r18, 0x08	; 8
    262e:	20 83       	st	Z, r18
    2630:	98 01       	movw	r18, r16
    2632:	30 5f       	subi	r19, 0xF0	; 240
    2634:	4b 81       	ldd	r20, Y+3	; 0x03
    2636:	5c 81       	ldd	r21, Y+4	; 0x04
    2638:	b9 01       	movw	r22, r18
    263a:	89 81       	ldd	r24, Y+1	; 0x01
    263c:	9a 81       	ldd	r25, Y+2	; 0x02
    263e:	0e 94 63 21 	call	0x42c6	; 0x42c6 <memcpy>
    2642:	f7 01       	movw	r30, r14
    2644:	80 81       	ld	r24, Z
    2646:	87 7f       	andi	r24, 0xF7	; 247
    2648:	80 83       	st	Z, r24
    264a:	24 96       	adiw	r28, 0x04	; 4
    264c:	cd bf       	out	0x3d, r28	; 61
    264e:	de bf       	out	0x3e, r29	; 62
    2650:	df 91       	pop	r29
    2652:	cf 91       	pop	r28
    2654:	1f 91       	pop	r17
    2656:	0f 91       	pop	r16
    2658:	ff 90       	pop	r15
    265a:	ef 90       	pop	r14
    265c:	08 95       	ret

0000265e <nvm_eeprom_flush_buffer>:
    265e:	ba df       	rcall	.-140    	; 0x25d4 <nvm_wait_until_ready>
    2660:	80 91 cf 01 	lds	r24, 0x01CF
    2664:	81 ff       	sbrs	r24, 1
    2666:	07 c0       	rjmp	.+14     	; 0x2676 <nvm_eeprom_flush_buffer+0x18>
    2668:	86 e3       	ldi	r24, 0x36	; 54
    266a:	80 93 ca 01 	sts	0x01CA, r24
    266e:	61 e0       	ldi	r22, 0x01	; 1
    2670:	8b ec       	ldi	r24, 0xCB	; 203
    2672:	91 e0       	ldi	r25, 0x01	; 1
    2674:	a9 cf       	rjmp	.-174    	; 0x25c8 <ccp_write_io>
    2676:	08 95       	ret

00002678 <nvm_eeprom_write_byte>:
    2678:	ef 92       	push	r14
    267a:	ff 92       	push	r15
    267c:	1f 93       	push	r17
    267e:	cf 93       	push	r28
    2680:	df 93       	push	r29
    2682:	00 d0       	rcall	.+0      	; 0x2684 <nvm_eeprom_write_byte+0xc>
    2684:	1f 92       	push	r1
    2686:	cd b7       	in	r28, 0x3d	; 61
    2688:	de b7       	in	r29, 0x3e	; 62
    268a:	20 ec       	ldi	r18, 0xC0	; 192
    268c:	e2 2e       	mov	r14, r18
    268e:	ff 24       	eor	r15, r15
    2690:	f3 94       	inc	r15
    2692:	f7 01       	movw	r30, r14
    2694:	12 85       	ldd	r17, Z+10	; 0x0a
    2696:	69 83       	std	Y+1, r22	; 0x01
    2698:	8a 83       	std	Y+2, r24	; 0x02
    269a:	9b 83       	std	Y+3, r25	; 0x03
    269c:	e0 df       	rcall	.-64     	; 0x265e <nvm_eeprom_flush_buffer>
    269e:	9a df       	rcall	.-204    	; 0x25d4 <nvm_wait_until_ready>
    26a0:	23 e3       	ldi	r18, 0x33	; 51
    26a2:	f7 01       	movw	r30, r14
    26a4:	22 87       	std	Z+10, r18	; 0x0a
    26a6:	12 82       	std	Z+2, r1	; 0x02
    26a8:	9b 81       	ldd	r25, Y+3	; 0x03
    26aa:	91 83       	std	Z+1, r25	; 0x01
    26ac:	8a 81       	ldd	r24, Y+2	; 0x02
    26ae:	80 83       	st	Z, r24
    26b0:	69 81       	ldd	r22, Y+1	; 0x01
    26b2:	64 83       	std	Z+4, r22	; 0x04
    26b4:	85 e3       	ldi	r24, 0x35	; 53
    26b6:	82 87       	std	Z+10, r24	; 0x0a
    26b8:	61 e0       	ldi	r22, 0x01	; 1
    26ba:	8b ec       	ldi	r24, 0xCB	; 203
    26bc:	91 e0       	ldi	r25, 0x01	; 1
    26be:	84 df       	rcall	.-248    	; 0x25c8 <ccp_write_io>
    26c0:	f7 01       	movw	r30, r14
    26c2:	12 87       	std	Z+10, r17	; 0x0a
    26c4:	23 96       	adiw	r28, 0x03	; 3
    26c6:	cd bf       	out	0x3d, r28	; 61
    26c8:	de bf       	out	0x3e, r29	; 62
    26ca:	df 91       	pop	r29
    26cc:	cf 91       	pop	r28
    26ce:	1f 91       	pop	r17
    26d0:	ff 90       	pop	r15
    26d2:	ef 90       	pop	r14
    26d4:	08 95       	ret

000026d6 <nvm_eeprom_load_page_to_buffer>:
    26d6:	1f 93       	push	r17
    26d8:	cf 93       	push	r28
    26da:	df 93       	push	r29
    26dc:	ec 01       	movw	r28, r24
    26de:	10 91 ca 01 	lds	r17, 0x01CA
    26e2:	78 df       	rcall	.-272    	; 0x25d4 <nvm_wait_until_ready>
    26e4:	83 e3       	ldi	r24, 0x33	; 51
    26e6:	80 93 ca 01 	sts	0x01CA, r24
    26ea:	10 92 c2 01 	sts	0x01C2, r1
    26ee:	10 92 c1 01 	sts	0x01C1, r1
    26f2:	80 e0       	ldi	r24, 0x00	; 0
    26f4:	80 93 c0 01 	sts	0x01C0, r24
    26f8:	99 91       	ld	r25, Y+
    26fa:	90 93 c4 01 	sts	0x01C4, r25
    26fe:	8f 5f       	subi	r24, 0xFF	; 255
    2700:	80 32       	cpi	r24, 0x20	; 32
    2702:	c1 f7       	brne	.-16     	; 0x26f4 <nvm_eeprom_load_page_to_buffer+0x1e>
    2704:	10 93 ca 01 	sts	0x01CA, r17
    2708:	df 91       	pop	r29
    270a:	cf 91       	pop	r28
    270c:	1f 91       	pop	r17
    270e:	08 95       	ret

00002710 <nvm_eeprom_atomic_write_page>:
    2710:	cf 93       	push	r28
    2712:	df 93       	push	r29
    2714:	1f 92       	push	r1
    2716:	cd b7       	in	r28, 0x3d	; 61
    2718:	de b7       	in	r29, 0x3e	; 62
    271a:	89 83       	std	Y+1, r24	; 0x01
    271c:	5b df       	rcall	.-330    	; 0x25d4 <nvm_wait_until_ready>
    271e:	89 81       	ldd	r24, Y+1	; 0x01
    2720:	20 e2       	ldi	r18, 0x20	; 32
    2722:	82 9f       	mul	r24, r18
    2724:	c0 01       	movw	r24, r0
    2726:	11 24       	eor	r1, r1
    2728:	e0 ec       	ldi	r30, 0xC0	; 192
    272a:	f1 e0       	ldi	r31, 0x01	; 1
    272c:	12 82       	std	Z+2, r1	; 0x02
    272e:	91 83       	std	Z+1, r25	; 0x01
    2730:	80 83       	st	Z, r24
    2732:	85 e3       	ldi	r24, 0x35	; 53
    2734:	0f 90       	pop	r0
    2736:	df 91       	pop	r29
    2738:	cf 91       	pop	r28
    273a:	51 cf       	rjmp	.-350    	; 0x25de <nvm_issue_command>

0000273c <nvm_eeprom_erase_and_write_buffer>:
    273c:	cf 92       	push	r12
    273e:	df 92       	push	r13
    2740:	ef 92       	push	r14
    2742:	ff 92       	push	r15
    2744:	0f 93       	push	r16
    2746:	1f 93       	push	r17
    2748:	cf 93       	push	r28
    274a:	df 93       	push	r29
    274c:	ec 01       	movw	r28, r24
    274e:	7b 01       	movw	r14, r22
    2750:	8a 01       	movw	r16, r20
    2752:	24 c0       	rjmp	.+72     	; 0x279c <nvm_eeprom_erase_and_write_buffer+0x60>
    2754:	ce 01       	movw	r24, r28
    2756:	8f 71       	andi	r24, 0x1F	; 31
    2758:	99 27       	eor	r25, r25
    275a:	89 2b       	or	r24, r25
    275c:	99 f4       	brne	.+38     	; 0x2784 <nvm_eeprom_erase_and_write_buffer+0x48>
    275e:	00 32       	cpi	r16, 0x20	; 32
    2760:	11 05       	cpc	r17, r1
    2762:	80 f0       	brcs	.+32     	; 0x2784 <nvm_eeprom_erase_and_write_buffer+0x48>
    2764:	c7 01       	movw	r24, r14
    2766:	b7 df       	rcall	.-146    	; 0x26d6 <nvm_eeprom_load_page_to_buffer>
    2768:	ce 01       	movw	r24, r28
    276a:	45 e0       	ldi	r20, 0x05	; 5
    276c:	96 95       	lsr	r25
    276e:	87 95       	ror	r24
    2770:	4a 95       	dec	r20
    2772:	e1 f7       	brne	.-8      	; 0x276c <nvm_eeprom_erase_and_write_buffer+0x30>
    2774:	cd df       	rcall	.-102    	; 0x2710 <nvm_eeprom_atomic_write_page>
    2776:	a0 96       	adiw	r28, 0x20	; 32
    2778:	80 e2       	ldi	r24, 0x20	; 32
    277a:	e8 0e       	add	r14, r24
    277c:	f1 1c       	adc	r15, r1
    277e:	00 52       	subi	r16, 0x20	; 32
    2780:	11 09       	sbc	r17, r1
    2782:	0c c0       	rjmp	.+24     	; 0x279c <nvm_eeprom_erase_and_write_buffer+0x60>
    2784:	6e 01       	movw	r12, r28
    2786:	ef ef       	ldi	r30, 0xFF	; 255
    2788:	ce 1a       	sub	r12, r30
    278a:	de 0a       	sbc	r13, r30
    278c:	f7 01       	movw	r30, r14
    278e:	61 91       	ld	r22, Z+
    2790:	7f 01       	movw	r14, r30
    2792:	ce 01       	movw	r24, r28
    2794:	71 df       	rcall	.-286    	; 0x2678 <nvm_eeprom_write_byte>
    2796:	01 50       	subi	r16, 0x01	; 1
    2798:	11 09       	sbc	r17, r1
    279a:	e6 01       	movw	r28, r12
    279c:	01 15       	cp	r16, r1
    279e:	11 05       	cpc	r17, r1
    27a0:	c9 f6       	brne	.-78     	; 0x2754 <nvm_eeprom_erase_and_write_buffer+0x18>
    27a2:	df 91       	pop	r29
    27a4:	cf 91       	pop	r28
    27a6:	1f 91       	pop	r17
    27a8:	0f 91       	pop	r16
    27aa:	ff 90       	pop	r15
    27ac:	ef 90       	pop	r14
    27ae:	df 90       	pop	r13
    27b0:	cf 90       	pop	r12
    27b2:	08 95       	ret

000027b4 <nvm_read_byte>:
#endif

#ifndef __DOXYGEN__
	PUBLIC_FUNCTION(nvm_read_byte)
#if defined(__GNUC__)
	lds r20, NVM_CMD          ; Store NVM command register
    27b4:	40 91 ca 01 	lds	r20, 0x01CA
	mov ZL, r22               ; Load byte index into low byte of Z.
    27b8:	e6 2f       	mov	r30, r22
	mov ZH, r23               ; Load high byte into Z.
    27ba:	f7 2f       	mov	r31, r23
	sts NVM_CMD, r24          ; Load prepared command into NVM Command register.
    27bc:	80 93 ca 01 	sts	0x01CA, r24
	lpm r24, Z                ; Perform an LPM to read out byte
    27c0:	84 91       	lpm	r24, Z
	sts NVM_CMD, r20          ; Restore NVM command register
    27c2:	40 93 ca 01 	sts	0x01CA, r20
	sts NVM_CMD, r16          ; Load prepared command into NVM Command register.
	lpm r16, Z                ; Perform an LPM to read out byte
	sts NVM_CMD, r20          ; Restore NVM command register
#endif

	ret
    27c6:	08 95       	ret

000027c8 <__vector_14>:
    27c8:	1f 92       	push	r1
    27ca:	0f 92       	push	r0
    27cc:	0f b6       	in	r0, 0x3f	; 63
    27ce:	0f 92       	push	r0
    27d0:	11 24       	eor	r1, r1
    27d2:	0b b6       	in	r0, 0x3b	; 59
    27d4:	0f 92       	push	r0
    27d6:	2f 93       	push	r18
    27d8:	3f 93       	push	r19
    27da:	4f 93       	push	r20
    27dc:	5f 93       	push	r21
    27de:	6f 93       	push	r22
    27e0:	7f 93       	push	r23
    27e2:	8f 93       	push	r24
    27e4:	9f 93       	push	r25
    27e6:	af 93       	push	r26
    27e8:	bf 93       	push	r27
    27ea:	ef 93       	push	r30
    27ec:	ff 93       	push	r31
    27ee:	e0 91 9c 2b 	lds	r30, 0x2B9C
    27f2:	f0 91 9d 2b 	lds	r31, 0x2B9D
    27f6:	30 97       	sbiw	r30, 0x00	; 0
    27f8:	09 f0       	breq	.+2      	; 0x27fc <__vector_14+0x34>
    27fa:	09 95       	icall
    27fc:	ff 91       	pop	r31
    27fe:	ef 91       	pop	r30
    2800:	bf 91       	pop	r27
    2802:	af 91       	pop	r26
    2804:	9f 91       	pop	r25
    2806:	8f 91       	pop	r24
    2808:	7f 91       	pop	r23
    280a:	6f 91       	pop	r22
    280c:	5f 91       	pop	r21
    280e:	4f 91       	pop	r20
    2810:	3f 91       	pop	r19
    2812:	2f 91       	pop	r18
    2814:	0f 90       	pop	r0
    2816:	0b be       	out	0x3b, r0	; 59
    2818:	0f 90       	pop	r0
    281a:	0f be       	out	0x3f, r0	; 63
    281c:	0f 90       	pop	r0
    281e:	1f 90       	pop	r1
    2820:	18 95       	reti

00002822 <__vector_15>:
    2822:	1f 92       	push	r1
    2824:	0f 92       	push	r0
    2826:	0f b6       	in	r0, 0x3f	; 63
    2828:	0f 92       	push	r0
    282a:	11 24       	eor	r1, r1
    282c:	0b b6       	in	r0, 0x3b	; 59
    282e:	0f 92       	push	r0
    2830:	2f 93       	push	r18
    2832:	3f 93       	push	r19
    2834:	4f 93       	push	r20
    2836:	5f 93       	push	r21
    2838:	6f 93       	push	r22
    283a:	7f 93       	push	r23
    283c:	8f 93       	push	r24
    283e:	9f 93       	push	r25
    2840:	af 93       	push	r26
    2842:	bf 93       	push	r27
    2844:	ef 93       	push	r30
    2846:	ff 93       	push	r31
    2848:	e0 91 9e 2b 	lds	r30, 0x2B9E
    284c:	f0 91 9f 2b 	lds	r31, 0x2B9F
    2850:	30 97       	sbiw	r30, 0x00	; 0
    2852:	09 f0       	breq	.+2      	; 0x2856 <__vector_15+0x34>
    2854:	09 95       	icall
    2856:	ff 91       	pop	r31
    2858:	ef 91       	pop	r30
    285a:	bf 91       	pop	r27
    285c:	af 91       	pop	r26
    285e:	9f 91       	pop	r25
    2860:	8f 91       	pop	r24
    2862:	7f 91       	pop	r23
    2864:	6f 91       	pop	r22
    2866:	5f 91       	pop	r21
    2868:	4f 91       	pop	r20
    286a:	3f 91       	pop	r19
    286c:	2f 91       	pop	r18
    286e:	0f 90       	pop	r0
    2870:	0b be       	out	0x3b, r0	; 59
    2872:	0f 90       	pop	r0
    2874:	0f be       	out	0x3f, r0	; 63
    2876:	0f 90       	pop	r0
    2878:	1f 90       	pop	r1
    287a:	18 95       	reti

0000287c <__vector_16>:
    287c:	1f 92       	push	r1
    287e:	0f 92       	push	r0
    2880:	0f b6       	in	r0, 0x3f	; 63
    2882:	0f 92       	push	r0
    2884:	11 24       	eor	r1, r1
    2886:	0b b6       	in	r0, 0x3b	; 59
    2888:	0f 92       	push	r0
    288a:	2f 93       	push	r18
    288c:	3f 93       	push	r19
    288e:	4f 93       	push	r20
    2890:	5f 93       	push	r21
    2892:	6f 93       	push	r22
    2894:	7f 93       	push	r23
    2896:	8f 93       	push	r24
    2898:	9f 93       	push	r25
    289a:	af 93       	push	r26
    289c:	bf 93       	push	r27
    289e:	ef 93       	push	r30
    28a0:	ff 93       	push	r31
    28a2:	e0 91 a0 2b 	lds	r30, 0x2BA0
    28a6:	f0 91 a1 2b 	lds	r31, 0x2BA1
    28aa:	30 97       	sbiw	r30, 0x00	; 0
    28ac:	09 f0       	breq	.+2      	; 0x28b0 <__vector_16+0x34>
    28ae:	09 95       	icall
    28b0:	ff 91       	pop	r31
    28b2:	ef 91       	pop	r30
    28b4:	bf 91       	pop	r27
    28b6:	af 91       	pop	r26
    28b8:	9f 91       	pop	r25
    28ba:	8f 91       	pop	r24
    28bc:	7f 91       	pop	r23
    28be:	6f 91       	pop	r22
    28c0:	5f 91       	pop	r21
    28c2:	4f 91       	pop	r20
    28c4:	3f 91       	pop	r19
    28c6:	2f 91       	pop	r18
    28c8:	0f 90       	pop	r0
    28ca:	0b be       	out	0x3b, r0	; 59
    28cc:	0f 90       	pop	r0
    28ce:	0f be       	out	0x3f, r0	; 63
    28d0:	0f 90       	pop	r0
    28d2:	1f 90       	pop	r1
    28d4:	18 95       	reti

000028d6 <__vector_17>:
    28d6:	1f 92       	push	r1
    28d8:	0f 92       	push	r0
    28da:	0f b6       	in	r0, 0x3f	; 63
    28dc:	0f 92       	push	r0
    28de:	11 24       	eor	r1, r1
    28e0:	0b b6       	in	r0, 0x3b	; 59
    28e2:	0f 92       	push	r0
    28e4:	2f 93       	push	r18
    28e6:	3f 93       	push	r19
    28e8:	4f 93       	push	r20
    28ea:	5f 93       	push	r21
    28ec:	6f 93       	push	r22
    28ee:	7f 93       	push	r23
    28f0:	8f 93       	push	r24
    28f2:	9f 93       	push	r25
    28f4:	af 93       	push	r26
    28f6:	bf 93       	push	r27
    28f8:	ef 93       	push	r30
    28fa:	ff 93       	push	r31
    28fc:	e0 91 a2 2b 	lds	r30, 0x2BA2
    2900:	f0 91 a3 2b 	lds	r31, 0x2BA3
    2904:	30 97       	sbiw	r30, 0x00	; 0
    2906:	09 f0       	breq	.+2      	; 0x290a <__vector_17+0x34>
    2908:	09 95       	icall
    290a:	ff 91       	pop	r31
    290c:	ef 91       	pop	r30
    290e:	bf 91       	pop	r27
    2910:	af 91       	pop	r26
    2912:	9f 91       	pop	r25
    2914:	8f 91       	pop	r24
    2916:	7f 91       	pop	r23
    2918:	6f 91       	pop	r22
    291a:	5f 91       	pop	r21
    291c:	4f 91       	pop	r20
    291e:	3f 91       	pop	r19
    2920:	2f 91       	pop	r18
    2922:	0f 90       	pop	r0
    2924:	0b be       	out	0x3b, r0	; 59
    2926:	0f 90       	pop	r0
    2928:	0f be       	out	0x3f, r0	; 63
    292a:	0f 90       	pop	r0
    292c:	1f 90       	pop	r1
    292e:	18 95       	reti

00002930 <__vector_18>:
    2930:	1f 92       	push	r1
    2932:	0f 92       	push	r0
    2934:	0f b6       	in	r0, 0x3f	; 63
    2936:	0f 92       	push	r0
    2938:	11 24       	eor	r1, r1
    293a:	0b b6       	in	r0, 0x3b	; 59
    293c:	0f 92       	push	r0
    293e:	2f 93       	push	r18
    2940:	3f 93       	push	r19
    2942:	4f 93       	push	r20
    2944:	5f 93       	push	r21
    2946:	6f 93       	push	r22
    2948:	7f 93       	push	r23
    294a:	8f 93       	push	r24
    294c:	9f 93       	push	r25
    294e:	af 93       	push	r26
    2950:	bf 93       	push	r27
    2952:	ef 93       	push	r30
    2954:	ff 93       	push	r31
    2956:	e0 91 a4 2b 	lds	r30, 0x2BA4
    295a:	f0 91 a5 2b 	lds	r31, 0x2BA5
    295e:	30 97       	sbiw	r30, 0x00	; 0
    2960:	09 f0       	breq	.+2      	; 0x2964 <__vector_18+0x34>
    2962:	09 95       	icall
    2964:	ff 91       	pop	r31
    2966:	ef 91       	pop	r30
    2968:	bf 91       	pop	r27
    296a:	af 91       	pop	r26
    296c:	9f 91       	pop	r25
    296e:	8f 91       	pop	r24
    2970:	7f 91       	pop	r23
    2972:	6f 91       	pop	r22
    2974:	5f 91       	pop	r21
    2976:	4f 91       	pop	r20
    2978:	3f 91       	pop	r19
    297a:	2f 91       	pop	r18
    297c:	0f 90       	pop	r0
    297e:	0b be       	out	0x3b, r0	; 59
    2980:	0f 90       	pop	r0
    2982:	0f be       	out	0x3f, r0	; 63
    2984:	0f 90       	pop	r0
    2986:	1f 90       	pop	r1
    2988:	18 95       	reti

0000298a <__vector_19>:
    298a:	1f 92       	push	r1
    298c:	0f 92       	push	r0
    298e:	0f b6       	in	r0, 0x3f	; 63
    2990:	0f 92       	push	r0
    2992:	11 24       	eor	r1, r1
    2994:	0b b6       	in	r0, 0x3b	; 59
    2996:	0f 92       	push	r0
    2998:	2f 93       	push	r18
    299a:	3f 93       	push	r19
    299c:	4f 93       	push	r20
    299e:	5f 93       	push	r21
    29a0:	6f 93       	push	r22
    29a2:	7f 93       	push	r23
    29a4:	8f 93       	push	r24
    29a6:	9f 93       	push	r25
    29a8:	af 93       	push	r26
    29aa:	bf 93       	push	r27
    29ac:	ef 93       	push	r30
    29ae:	ff 93       	push	r31
    29b0:	e0 91 a6 2b 	lds	r30, 0x2BA6
    29b4:	f0 91 a7 2b 	lds	r31, 0x2BA7
    29b8:	30 97       	sbiw	r30, 0x00	; 0
    29ba:	09 f0       	breq	.+2      	; 0x29be <__vector_19+0x34>
    29bc:	09 95       	icall
    29be:	ff 91       	pop	r31
    29c0:	ef 91       	pop	r30
    29c2:	bf 91       	pop	r27
    29c4:	af 91       	pop	r26
    29c6:	9f 91       	pop	r25
    29c8:	8f 91       	pop	r24
    29ca:	7f 91       	pop	r23
    29cc:	6f 91       	pop	r22
    29ce:	5f 91       	pop	r21
    29d0:	4f 91       	pop	r20
    29d2:	3f 91       	pop	r19
    29d4:	2f 91       	pop	r18
    29d6:	0f 90       	pop	r0
    29d8:	0b be       	out	0x3b, r0	; 59
    29da:	0f 90       	pop	r0
    29dc:	0f be       	out	0x3f, r0	; 63
    29de:	0f 90       	pop	r0
    29e0:	1f 90       	pop	r1
    29e2:	18 95       	reti

000029e4 <__vector_20>:
    29e4:	1f 92       	push	r1
    29e6:	0f 92       	push	r0
    29e8:	0f b6       	in	r0, 0x3f	; 63
    29ea:	0f 92       	push	r0
    29ec:	11 24       	eor	r1, r1
    29ee:	0b b6       	in	r0, 0x3b	; 59
    29f0:	0f 92       	push	r0
    29f2:	2f 93       	push	r18
    29f4:	3f 93       	push	r19
    29f6:	4f 93       	push	r20
    29f8:	5f 93       	push	r21
    29fa:	6f 93       	push	r22
    29fc:	7f 93       	push	r23
    29fe:	8f 93       	push	r24
    2a00:	9f 93       	push	r25
    2a02:	af 93       	push	r26
    2a04:	bf 93       	push	r27
    2a06:	ef 93       	push	r30
    2a08:	ff 93       	push	r31
    2a0a:	e0 91 a8 2b 	lds	r30, 0x2BA8
    2a0e:	f0 91 a9 2b 	lds	r31, 0x2BA9
    2a12:	30 97       	sbiw	r30, 0x00	; 0
    2a14:	09 f0       	breq	.+2      	; 0x2a18 <__vector_20+0x34>
    2a16:	09 95       	icall
    2a18:	ff 91       	pop	r31
    2a1a:	ef 91       	pop	r30
    2a1c:	bf 91       	pop	r27
    2a1e:	af 91       	pop	r26
    2a20:	9f 91       	pop	r25
    2a22:	8f 91       	pop	r24
    2a24:	7f 91       	pop	r23
    2a26:	6f 91       	pop	r22
    2a28:	5f 91       	pop	r21
    2a2a:	4f 91       	pop	r20
    2a2c:	3f 91       	pop	r19
    2a2e:	2f 91       	pop	r18
    2a30:	0f 90       	pop	r0
    2a32:	0b be       	out	0x3b, r0	; 59
    2a34:	0f 90       	pop	r0
    2a36:	0f be       	out	0x3f, r0	; 63
    2a38:	0f 90       	pop	r0
    2a3a:	1f 90       	pop	r1
    2a3c:	18 95       	reti

00002a3e <__vector_21>:
    2a3e:	1f 92       	push	r1
    2a40:	0f 92       	push	r0
    2a42:	0f b6       	in	r0, 0x3f	; 63
    2a44:	0f 92       	push	r0
    2a46:	11 24       	eor	r1, r1
    2a48:	0b b6       	in	r0, 0x3b	; 59
    2a4a:	0f 92       	push	r0
    2a4c:	2f 93       	push	r18
    2a4e:	3f 93       	push	r19
    2a50:	4f 93       	push	r20
    2a52:	5f 93       	push	r21
    2a54:	6f 93       	push	r22
    2a56:	7f 93       	push	r23
    2a58:	8f 93       	push	r24
    2a5a:	9f 93       	push	r25
    2a5c:	af 93       	push	r26
    2a5e:	bf 93       	push	r27
    2a60:	ef 93       	push	r30
    2a62:	ff 93       	push	r31
    2a64:	e0 91 aa 2b 	lds	r30, 0x2BAA
    2a68:	f0 91 ab 2b 	lds	r31, 0x2BAB
    2a6c:	30 97       	sbiw	r30, 0x00	; 0
    2a6e:	09 f0       	breq	.+2      	; 0x2a72 <__vector_21+0x34>
    2a70:	09 95       	icall
    2a72:	ff 91       	pop	r31
    2a74:	ef 91       	pop	r30
    2a76:	bf 91       	pop	r27
    2a78:	af 91       	pop	r26
    2a7a:	9f 91       	pop	r25
    2a7c:	8f 91       	pop	r24
    2a7e:	7f 91       	pop	r23
    2a80:	6f 91       	pop	r22
    2a82:	5f 91       	pop	r21
    2a84:	4f 91       	pop	r20
    2a86:	3f 91       	pop	r19
    2a88:	2f 91       	pop	r18
    2a8a:	0f 90       	pop	r0
    2a8c:	0b be       	out	0x3b, r0	; 59
    2a8e:	0f 90       	pop	r0
    2a90:	0f be       	out	0x3f, r0	; 63
    2a92:	0f 90       	pop	r0
    2a94:	1f 90       	pop	r1
    2a96:	18 95       	reti

00002a98 <__vector_22>:
    2a98:	1f 92       	push	r1
    2a9a:	0f 92       	push	r0
    2a9c:	0f b6       	in	r0, 0x3f	; 63
    2a9e:	0f 92       	push	r0
    2aa0:	11 24       	eor	r1, r1
    2aa2:	0b b6       	in	r0, 0x3b	; 59
    2aa4:	0f 92       	push	r0
    2aa6:	2f 93       	push	r18
    2aa8:	3f 93       	push	r19
    2aaa:	4f 93       	push	r20
    2aac:	5f 93       	push	r21
    2aae:	6f 93       	push	r22
    2ab0:	7f 93       	push	r23
    2ab2:	8f 93       	push	r24
    2ab4:	9f 93       	push	r25
    2ab6:	af 93       	push	r26
    2ab8:	bf 93       	push	r27
    2aba:	ef 93       	push	r30
    2abc:	ff 93       	push	r31
    2abe:	e0 91 ac 2b 	lds	r30, 0x2BAC
    2ac2:	f0 91 ad 2b 	lds	r31, 0x2BAD
    2ac6:	30 97       	sbiw	r30, 0x00	; 0
    2ac8:	09 f0       	breq	.+2      	; 0x2acc <__vector_22+0x34>
    2aca:	09 95       	icall
    2acc:	ff 91       	pop	r31
    2ace:	ef 91       	pop	r30
    2ad0:	bf 91       	pop	r27
    2ad2:	af 91       	pop	r26
    2ad4:	9f 91       	pop	r25
    2ad6:	8f 91       	pop	r24
    2ad8:	7f 91       	pop	r23
    2ada:	6f 91       	pop	r22
    2adc:	5f 91       	pop	r21
    2ade:	4f 91       	pop	r20
    2ae0:	3f 91       	pop	r19
    2ae2:	2f 91       	pop	r18
    2ae4:	0f 90       	pop	r0
    2ae6:	0b be       	out	0x3b, r0	; 59
    2ae8:	0f 90       	pop	r0
    2aea:	0f be       	out	0x3f, r0	; 63
    2aec:	0f 90       	pop	r0
    2aee:	1f 90       	pop	r1
    2af0:	18 95       	reti

00002af2 <__vector_23>:
    2af2:	1f 92       	push	r1
    2af4:	0f 92       	push	r0
    2af6:	0f b6       	in	r0, 0x3f	; 63
    2af8:	0f 92       	push	r0
    2afa:	11 24       	eor	r1, r1
    2afc:	0b b6       	in	r0, 0x3b	; 59
    2afe:	0f 92       	push	r0
    2b00:	2f 93       	push	r18
    2b02:	3f 93       	push	r19
    2b04:	4f 93       	push	r20
    2b06:	5f 93       	push	r21
    2b08:	6f 93       	push	r22
    2b0a:	7f 93       	push	r23
    2b0c:	8f 93       	push	r24
    2b0e:	9f 93       	push	r25
    2b10:	af 93       	push	r26
    2b12:	bf 93       	push	r27
    2b14:	ef 93       	push	r30
    2b16:	ff 93       	push	r31
    2b18:	e0 91 ae 2b 	lds	r30, 0x2BAE
    2b1c:	f0 91 af 2b 	lds	r31, 0x2BAF
    2b20:	30 97       	sbiw	r30, 0x00	; 0
    2b22:	09 f0       	breq	.+2      	; 0x2b26 <__vector_23+0x34>
    2b24:	09 95       	icall
    2b26:	ff 91       	pop	r31
    2b28:	ef 91       	pop	r30
    2b2a:	bf 91       	pop	r27
    2b2c:	af 91       	pop	r26
    2b2e:	9f 91       	pop	r25
    2b30:	8f 91       	pop	r24
    2b32:	7f 91       	pop	r23
    2b34:	6f 91       	pop	r22
    2b36:	5f 91       	pop	r21
    2b38:	4f 91       	pop	r20
    2b3a:	3f 91       	pop	r19
    2b3c:	2f 91       	pop	r18
    2b3e:	0f 90       	pop	r0
    2b40:	0b be       	out	0x3b, r0	; 59
    2b42:	0f 90       	pop	r0
    2b44:	0f be       	out	0x3f, r0	; 63
    2b46:	0f 90       	pop	r0
    2b48:	1f 90       	pop	r1
    2b4a:	18 95       	reti

00002b4c <__vector_77>:
    2b4c:	1f 92       	push	r1
    2b4e:	0f 92       	push	r0
    2b50:	0f b6       	in	r0, 0x3f	; 63
    2b52:	0f 92       	push	r0
    2b54:	11 24       	eor	r1, r1
    2b56:	0b b6       	in	r0, 0x3b	; 59
    2b58:	0f 92       	push	r0
    2b5a:	2f 93       	push	r18
    2b5c:	3f 93       	push	r19
    2b5e:	4f 93       	push	r20
    2b60:	5f 93       	push	r21
    2b62:	6f 93       	push	r22
    2b64:	7f 93       	push	r23
    2b66:	8f 93       	push	r24
    2b68:	9f 93       	push	r25
    2b6a:	af 93       	push	r26
    2b6c:	bf 93       	push	r27
    2b6e:	ef 93       	push	r30
    2b70:	ff 93       	push	r31
    2b72:	e0 91 b0 2b 	lds	r30, 0x2BB0
    2b76:	f0 91 b1 2b 	lds	r31, 0x2BB1
    2b7a:	30 97       	sbiw	r30, 0x00	; 0
    2b7c:	09 f0       	breq	.+2      	; 0x2b80 <__vector_77+0x34>
    2b7e:	09 95       	icall
    2b80:	ff 91       	pop	r31
    2b82:	ef 91       	pop	r30
    2b84:	bf 91       	pop	r27
    2b86:	af 91       	pop	r26
    2b88:	9f 91       	pop	r25
    2b8a:	8f 91       	pop	r24
    2b8c:	7f 91       	pop	r23
    2b8e:	6f 91       	pop	r22
    2b90:	5f 91       	pop	r21
    2b92:	4f 91       	pop	r20
    2b94:	3f 91       	pop	r19
    2b96:	2f 91       	pop	r18
    2b98:	0f 90       	pop	r0
    2b9a:	0b be       	out	0x3b, r0	; 59
    2b9c:	0f 90       	pop	r0
    2b9e:	0f be       	out	0x3f, r0	; 63
    2ba0:	0f 90       	pop	r0
    2ba2:	1f 90       	pop	r1
    2ba4:	18 95       	reti

00002ba6 <__vector_78>:
    2ba6:	1f 92       	push	r1
    2ba8:	0f 92       	push	r0
    2baa:	0f b6       	in	r0, 0x3f	; 63
    2bac:	0f 92       	push	r0
    2bae:	11 24       	eor	r1, r1
    2bb0:	0b b6       	in	r0, 0x3b	; 59
    2bb2:	0f 92       	push	r0
    2bb4:	2f 93       	push	r18
    2bb6:	3f 93       	push	r19
    2bb8:	4f 93       	push	r20
    2bba:	5f 93       	push	r21
    2bbc:	6f 93       	push	r22
    2bbe:	7f 93       	push	r23
    2bc0:	8f 93       	push	r24
    2bc2:	9f 93       	push	r25
    2bc4:	af 93       	push	r26
    2bc6:	bf 93       	push	r27
    2bc8:	ef 93       	push	r30
    2bca:	ff 93       	push	r31
    2bcc:	e0 91 b2 2b 	lds	r30, 0x2BB2
    2bd0:	f0 91 b3 2b 	lds	r31, 0x2BB3
    2bd4:	30 97       	sbiw	r30, 0x00	; 0
    2bd6:	09 f0       	breq	.+2      	; 0x2bda <__vector_78+0x34>
    2bd8:	09 95       	icall
    2bda:	ff 91       	pop	r31
    2bdc:	ef 91       	pop	r30
    2bde:	bf 91       	pop	r27
    2be0:	af 91       	pop	r26
    2be2:	9f 91       	pop	r25
    2be4:	8f 91       	pop	r24
    2be6:	7f 91       	pop	r23
    2be8:	6f 91       	pop	r22
    2bea:	5f 91       	pop	r21
    2bec:	4f 91       	pop	r20
    2bee:	3f 91       	pop	r19
    2bf0:	2f 91       	pop	r18
    2bf2:	0f 90       	pop	r0
    2bf4:	0b be       	out	0x3b, r0	; 59
    2bf6:	0f 90       	pop	r0
    2bf8:	0f be       	out	0x3f, r0	; 63
    2bfa:	0f 90       	pop	r0
    2bfc:	1f 90       	pop	r1
    2bfe:	18 95       	reti

00002c00 <__vector_79>:
    2c00:	1f 92       	push	r1
    2c02:	0f 92       	push	r0
    2c04:	0f b6       	in	r0, 0x3f	; 63
    2c06:	0f 92       	push	r0
    2c08:	11 24       	eor	r1, r1
    2c0a:	0b b6       	in	r0, 0x3b	; 59
    2c0c:	0f 92       	push	r0
    2c0e:	2f 93       	push	r18
    2c10:	3f 93       	push	r19
    2c12:	4f 93       	push	r20
    2c14:	5f 93       	push	r21
    2c16:	6f 93       	push	r22
    2c18:	7f 93       	push	r23
    2c1a:	8f 93       	push	r24
    2c1c:	9f 93       	push	r25
    2c1e:	af 93       	push	r26
    2c20:	bf 93       	push	r27
    2c22:	ef 93       	push	r30
    2c24:	ff 93       	push	r31
    2c26:	e0 91 b4 2b 	lds	r30, 0x2BB4
    2c2a:	f0 91 b5 2b 	lds	r31, 0x2BB5
    2c2e:	30 97       	sbiw	r30, 0x00	; 0
    2c30:	09 f0       	breq	.+2      	; 0x2c34 <__vector_79+0x34>
    2c32:	09 95       	icall
    2c34:	ff 91       	pop	r31
    2c36:	ef 91       	pop	r30
    2c38:	bf 91       	pop	r27
    2c3a:	af 91       	pop	r26
    2c3c:	9f 91       	pop	r25
    2c3e:	8f 91       	pop	r24
    2c40:	7f 91       	pop	r23
    2c42:	6f 91       	pop	r22
    2c44:	5f 91       	pop	r21
    2c46:	4f 91       	pop	r20
    2c48:	3f 91       	pop	r19
    2c4a:	2f 91       	pop	r18
    2c4c:	0f 90       	pop	r0
    2c4e:	0b be       	out	0x3b, r0	; 59
    2c50:	0f 90       	pop	r0
    2c52:	0f be       	out	0x3f, r0	; 63
    2c54:	0f 90       	pop	r0
    2c56:	1f 90       	pop	r1
    2c58:	18 95       	reti

00002c5a <__vector_80>:
    2c5a:	1f 92       	push	r1
    2c5c:	0f 92       	push	r0
    2c5e:	0f b6       	in	r0, 0x3f	; 63
    2c60:	0f 92       	push	r0
    2c62:	11 24       	eor	r1, r1
    2c64:	0b b6       	in	r0, 0x3b	; 59
    2c66:	0f 92       	push	r0
    2c68:	2f 93       	push	r18
    2c6a:	3f 93       	push	r19
    2c6c:	4f 93       	push	r20
    2c6e:	5f 93       	push	r21
    2c70:	6f 93       	push	r22
    2c72:	7f 93       	push	r23
    2c74:	8f 93       	push	r24
    2c76:	9f 93       	push	r25
    2c78:	af 93       	push	r26
    2c7a:	bf 93       	push	r27
    2c7c:	ef 93       	push	r30
    2c7e:	ff 93       	push	r31
    2c80:	e0 91 b6 2b 	lds	r30, 0x2BB6
    2c84:	f0 91 b7 2b 	lds	r31, 0x2BB7
    2c88:	30 97       	sbiw	r30, 0x00	; 0
    2c8a:	09 f0       	breq	.+2      	; 0x2c8e <__vector_80+0x34>
    2c8c:	09 95       	icall
    2c8e:	ff 91       	pop	r31
    2c90:	ef 91       	pop	r30
    2c92:	bf 91       	pop	r27
    2c94:	af 91       	pop	r26
    2c96:	9f 91       	pop	r25
    2c98:	8f 91       	pop	r24
    2c9a:	7f 91       	pop	r23
    2c9c:	6f 91       	pop	r22
    2c9e:	5f 91       	pop	r21
    2ca0:	4f 91       	pop	r20
    2ca2:	3f 91       	pop	r19
    2ca4:	2f 91       	pop	r18
    2ca6:	0f 90       	pop	r0
    2ca8:	0b be       	out	0x3b, r0	; 59
    2caa:	0f 90       	pop	r0
    2cac:	0f be       	out	0x3f, r0	; 63
    2cae:	0f 90       	pop	r0
    2cb0:	1f 90       	pop	r1
    2cb2:	18 95       	reti

00002cb4 <__vector_81>:
    2cb4:	1f 92       	push	r1
    2cb6:	0f 92       	push	r0
    2cb8:	0f b6       	in	r0, 0x3f	; 63
    2cba:	0f 92       	push	r0
    2cbc:	11 24       	eor	r1, r1
    2cbe:	0b b6       	in	r0, 0x3b	; 59
    2cc0:	0f 92       	push	r0
    2cc2:	2f 93       	push	r18
    2cc4:	3f 93       	push	r19
    2cc6:	4f 93       	push	r20
    2cc8:	5f 93       	push	r21
    2cca:	6f 93       	push	r22
    2ccc:	7f 93       	push	r23
    2cce:	8f 93       	push	r24
    2cd0:	9f 93       	push	r25
    2cd2:	af 93       	push	r26
    2cd4:	bf 93       	push	r27
    2cd6:	ef 93       	push	r30
    2cd8:	ff 93       	push	r31
    2cda:	e0 91 b8 2b 	lds	r30, 0x2BB8
    2cde:	f0 91 b9 2b 	lds	r31, 0x2BB9
    2ce2:	30 97       	sbiw	r30, 0x00	; 0
    2ce4:	09 f0       	breq	.+2      	; 0x2ce8 <__vector_81+0x34>
    2ce6:	09 95       	icall
    2ce8:	ff 91       	pop	r31
    2cea:	ef 91       	pop	r30
    2cec:	bf 91       	pop	r27
    2cee:	af 91       	pop	r26
    2cf0:	9f 91       	pop	r25
    2cf2:	8f 91       	pop	r24
    2cf4:	7f 91       	pop	r23
    2cf6:	6f 91       	pop	r22
    2cf8:	5f 91       	pop	r21
    2cfa:	4f 91       	pop	r20
    2cfc:	3f 91       	pop	r19
    2cfe:	2f 91       	pop	r18
    2d00:	0f 90       	pop	r0
    2d02:	0b be       	out	0x3b, r0	; 59
    2d04:	0f 90       	pop	r0
    2d06:	0f be       	out	0x3f, r0	; 63
    2d08:	0f 90       	pop	r0
    2d0a:	1f 90       	pop	r1
    2d0c:	18 95       	reti

00002d0e <__vector_82>:
    2d0e:	1f 92       	push	r1
    2d10:	0f 92       	push	r0
    2d12:	0f b6       	in	r0, 0x3f	; 63
    2d14:	0f 92       	push	r0
    2d16:	11 24       	eor	r1, r1
    2d18:	0b b6       	in	r0, 0x3b	; 59
    2d1a:	0f 92       	push	r0
    2d1c:	2f 93       	push	r18
    2d1e:	3f 93       	push	r19
    2d20:	4f 93       	push	r20
    2d22:	5f 93       	push	r21
    2d24:	6f 93       	push	r22
    2d26:	7f 93       	push	r23
    2d28:	8f 93       	push	r24
    2d2a:	9f 93       	push	r25
    2d2c:	af 93       	push	r26
    2d2e:	bf 93       	push	r27
    2d30:	ef 93       	push	r30
    2d32:	ff 93       	push	r31
    2d34:	e0 91 ba 2b 	lds	r30, 0x2BBA
    2d38:	f0 91 bb 2b 	lds	r31, 0x2BBB
    2d3c:	30 97       	sbiw	r30, 0x00	; 0
    2d3e:	09 f0       	breq	.+2      	; 0x2d42 <__vector_82+0x34>
    2d40:	09 95       	icall
    2d42:	ff 91       	pop	r31
    2d44:	ef 91       	pop	r30
    2d46:	bf 91       	pop	r27
    2d48:	af 91       	pop	r26
    2d4a:	9f 91       	pop	r25
    2d4c:	8f 91       	pop	r24
    2d4e:	7f 91       	pop	r23
    2d50:	6f 91       	pop	r22
    2d52:	5f 91       	pop	r21
    2d54:	4f 91       	pop	r20
    2d56:	3f 91       	pop	r19
    2d58:	2f 91       	pop	r18
    2d5a:	0f 90       	pop	r0
    2d5c:	0b be       	out	0x3b, r0	; 59
    2d5e:	0f 90       	pop	r0
    2d60:	0f be       	out	0x3f, r0	; 63
    2d62:	0f 90       	pop	r0
    2d64:	1f 90       	pop	r1
    2d66:	18 95       	reti

00002d68 <__vector_47>:
    2d68:	1f 92       	push	r1
    2d6a:	0f 92       	push	r0
    2d6c:	0f b6       	in	r0, 0x3f	; 63
    2d6e:	0f 92       	push	r0
    2d70:	11 24       	eor	r1, r1
    2d72:	0b b6       	in	r0, 0x3b	; 59
    2d74:	0f 92       	push	r0
    2d76:	2f 93       	push	r18
    2d78:	3f 93       	push	r19
    2d7a:	4f 93       	push	r20
    2d7c:	5f 93       	push	r21
    2d7e:	6f 93       	push	r22
    2d80:	7f 93       	push	r23
    2d82:	8f 93       	push	r24
    2d84:	9f 93       	push	r25
    2d86:	af 93       	push	r26
    2d88:	bf 93       	push	r27
    2d8a:	ef 93       	push	r30
    2d8c:	ff 93       	push	r31
    2d8e:	e0 91 bc 2b 	lds	r30, 0x2BBC
    2d92:	f0 91 bd 2b 	lds	r31, 0x2BBD
    2d96:	30 97       	sbiw	r30, 0x00	; 0
    2d98:	09 f0       	breq	.+2      	; 0x2d9c <__vector_47+0x34>
    2d9a:	09 95       	icall
    2d9c:	ff 91       	pop	r31
    2d9e:	ef 91       	pop	r30
    2da0:	bf 91       	pop	r27
    2da2:	af 91       	pop	r26
    2da4:	9f 91       	pop	r25
    2da6:	8f 91       	pop	r24
    2da8:	7f 91       	pop	r23
    2daa:	6f 91       	pop	r22
    2dac:	5f 91       	pop	r21
    2dae:	4f 91       	pop	r20
    2db0:	3f 91       	pop	r19
    2db2:	2f 91       	pop	r18
    2db4:	0f 90       	pop	r0
    2db6:	0b be       	out	0x3b, r0	; 59
    2db8:	0f 90       	pop	r0
    2dba:	0f be       	out	0x3f, r0	; 63
    2dbc:	0f 90       	pop	r0
    2dbe:	1f 90       	pop	r1
    2dc0:	18 95       	reti

00002dc2 <__vector_48>:
    2dc2:	1f 92       	push	r1
    2dc4:	0f 92       	push	r0
    2dc6:	0f b6       	in	r0, 0x3f	; 63
    2dc8:	0f 92       	push	r0
    2dca:	11 24       	eor	r1, r1
    2dcc:	0b b6       	in	r0, 0x3b	; 59
    2dce:	0f 92       	push	r0
    2dd0:	2f 93       	push	r18
    2dd2:	3f 93       	push	r19
    2dd4:	4f 93       	push	r20
    2dd6:	5f 93       	push	r21
    2dd8:	6f 93       	push	r22
    2dda:	7f 93       	push	r23
    2ddc:	8f 93       	push	r24
    2dde:	9f 93       	push	r25
    2de0:	af 93       	push	r26
    2de2:	bf 93       	push	r27
    2de4:	ef 93       	push	r30
    2de6:	ff 93       	push	r31
    2de8:	e0 91 be 2b 	lds	r30, 0x2BBE
    2dec:	f0 91 bf 2b 	lds	r31, 0x2BBF
    2df0:	30 97       	sbiw	r30, 0x00	; 0
    2df2:	09 f0       	breq	.+2      	; 0x2df6 <__vector_48+0x34>
    2df4:	09 95       	icall
    2df6:	ff 91       	pop	r31
    2df8:	ef 91       	pop	r30
    2dfa:	bf 91       	pop	r27
    2dfc:	af 91       	pop	r26
    2dfe:	9f 91       	pop	r25
    2e00:	8f 91       	pop	r24
    2e02:	7f 91       	pop	r23
    2e04:	6f 91       	pop	r22
    2e06:	5f 91       	pop	r21
    2e08:	4f 91       	pop	r20
    2e0a:	3f 91       	pop	r19
    2e0c:	2f 91       	pop	r18
    2e0e:	0f 90       	pop	r0
    2e10:	0b be       	out	0x3b, r0	; 59
    2e12:	0f 90       	pop	r0
    2e14:	0f be       	out	0x3f, r0	; 63
    2e16:	0f 90       	pop	r0
    2e18:	1f 90       	pop	r1
    2e1a:	18 95       	reti

00002e1c <__vector_49>:
    2e1c:	1f 92       	push	r1
    2e1e:	0f 92       	push	r0
    2e20:	0f b6       	in	r0, 0x3f	; 63
    2e22:	0f 92       	push	r0
    2e24:	11 24       	eor	r1, r1
    2e26:	0b b6       	in	r0, 0x3b	; 59
    2e28:	0f 92       	push	r0
    2e2a:	2f 93       	push	r18
    2e2c:	3f 93       	push	r19
    2e2e:	4f 93       	push	r20
    2e30:	5f 93       	push	r21
    2e32:	6f 93       	push	r22
    2e34:	7f 93       	push	r23
    2e36:	8f 93       	push	r24
    2e38:	9f 93       	push	r25
    2e3a:	af 93       	push	r26
    2e3c:	bf 93       	push	r27
    2e3e:	ef 93       	push	r30
    2e40:	ff 93       	push	r31
    2e42:	e0 91 c0 2b 	lds	r30, 0x2BC0
    2e46:	f0 91 c1 2b 	lds	r31, 0x2BC1
    2e4a:	30 97       	sbiw	r30, 0x00	; 0
    2e4c:	09 f0       	breq	.+2      	; 0x2e50 <__vector_49+0x34>
    2e4e:	09 95       	icall
    2e50:	ff 91       	pop	r31
    2e52:	ef 91       	pop	r30
    2e54:	bf 91       	pop	r27
    2e56:	af 91       	pop	r26
    2e58:	9f 91       	pop	r25
    2e5a:	8f 91       	pop	r24
    2e5c:	7f 91       	pop	r23
    2e5e:	6f 91       	pop	r22
    2e60:	5f 91       	pop	r21
    2e62:	4f 91       	pop	r20
    2e64:	3f 91       	pop	r19
    2e66:	2f 91       	pop	r18
    2e68:	0f 90       	pop	r0
    2e6a:	0b be       	out	0x3b, r0	; 59
    2e6c:	0f 90       	pop	r0
    2e6e:	0f be       	out	0x3f, r0	; 63
    2e70:	0f 90       	pop	r0
    2e72:	1f 90       	pop	r1
    2e74:	18 95       	reti

00002e76 <__vector_50>:
    2e76:	1f 92       	push	r1
    2e78:	0f 92       	push	r0
    2e7a:	0f b6       	in	r0, 0x3f	; 63
    2e7c:	0f 92       	push	r0
    2e7e:	11 24       	eor	r1, r1
    2e80:	0b b6       	in	r0, 0x3b	; 59
    2e82:	0f 92       	push	r0
    2e84:	2f 93       	push	r18
    2e86:	3f 93       	push	r19
    2e88:	4f 93       	push	r20
    2e8a:	5f 93       	push	r21
    2e8c:	6f 93       	push	r22
    2e8e:	7f 93       	push	r23
    2e90:	8f 93       	push	r24
    2e92:	9f 93       	push	r25
    2e94:	af 93       	push	r26
    2e96:	bf 93       	push	r27
    2e98:	ef 93       	push	r30
    2e9a:	ff 93       	push	r31
    2e9c:	e0 91 c2 2b 	lds	r30, 0x2BC2
    2ea0:	f0 91 c3 2b 	lds	r31, 0x2BC3
    2ea4:	30 97       	sbiw	r30, 0x00	; 0
    2ea6:	09 f0       	breq	.+2      	; 0x2eaa <__vector_50+0x34>
    2ea8:	09 95       	icall
    2eaa:	ff 91       	pop	r31
    2eac:	ef 91       	pop	r30
    2eae:	bf 91       	pop	r27
    2eb0:	af 91       	pop	r26
    2eb2:	9f 91       	pop	r25
    2eb4:	8f 91       	pop	r24
    2eb6:	7f 91       	pop	r23
    2eb8:	6f 91       	pop	r22
    2eba:	5f 91       	pop	r21
    2ebc:	4f 91       	pop	r20
    2ebe:	3f 91       	pop	r19
    2ec0:	2f 91       	pop	r18
    2ec2:	0f 90       	pop	r0
    2ec4:	0b be       	out	0x3b, r0	; 59
    2ec6:	0f 90       	pop	r0
    2ec8:	0f be       	out	0x3f, r0	; 63
    2eca:	0f 90       	pop	r0
    2ecc:	1f 90       	pop	r1
    2ece:	18 95       	reti

00002ed0 <__vector_51>:
    2ed0:	1f 92       	push	r1
    2ed2:	0f 92       	push	r0
    2ed4:	0f b6       	in	r0, 0x3f	; 63
    2ed6:	0f 92       	push	r0
    2ed8:	11 24       	eor	r1, r1
    2eda:	0b b6       	in	r0, 0x3b	; 59
    2edc:	0f 92       	push	r0
    2ede:	2f 93       	push	r18
    2ee0:	3f 93       	push	r19
    2ee2:	4f 93       	push	r20
    2ee4:	5f 93       	push	r21
    2ee6:	6f 93       	push	r22
    2ee8:	7f 93       	push	r23
    2eea:	8f 93       	push	r24
    2eec:	9f 93       	push	r25
    2eee:	af 93       	push	r26
    2ef0:	bf 93       	push	r27
    2ef2:	ef 93       	push	r30
    2ef4:	ff 93       	push	r31
    2ef6:	e0 91 c4 2b 	lds	r30, 0x2BC4
    2efa:	f0 91 c5 2b 	lds	r31, 0x2BC5
    2efe:	30 97       	sbiw	r30, 0x00	; 0
    2f00:	09 f0       	breq	.+2      	; 0x2f04 <__vector_51+0x34>
    2f02:	09 95       	icall
    2f04:	ff 91       	pop	r31
    2f06:	ef 91       	pop	r30
    2f08:	bf 91       	pop	r27
    2f0a:	af 91       	pop	r26
    2f0c:	9f 91       	pop	r25
    2f0e:	8f 91       	pop	r24
    2f10:	7f 91       	pop	r23
    2f12:	6f 91       	pop	r22
    2f14:	5f 91       	pop	r21
    2f16:	4f 91       	pop	r20
    2f18:	3f 91       	pop	r19
    2f1a:	2f 91       	pop	r18
    2f1c:	0f 90       	pop	r0
    2f1e:	0b be       	out	0x3b, r0	; 59
    2f20:	0f 90       	pop	r0
    2f22:	0f be       	out	0x3f, r0	; 63
    2f24:	0f 90       	pop	r0
    2f26:	1f 90       	pop	r1
    2f28:	18 95       	reti

00002f2a <__vector_52>:
    2f2a:	1f 92       	push	r1
    2f2c:	0f 92       	push	r0
    2f2e:	0f b6       	in	r0, 0x3f	; 63
    2f30:	0f 92       	push	r0
    2f32:	11 24       	eor	r1, r1
    2f34:	0b b6       	in	r0, 0x3b	; 59
    2f36:	0f 92       	push	r0
    2f38:	2f 93       	push	r18
    2f3a:	3f 93       	push	r19
    2f3c:	4f 93       	push	r20
    2f3e:	5f 93       	push	r21
    2f40:	6f 93       	push	r22
    2f42:	7f 93       	push	r23
    2f44:	8f 93       	push	r24
    2f46:	9f 93       	push	r25
    2f48:	af 93       	push	r26
    2f4a:	bf 93       	push	r27
    2f4c:	ef 93       	push	r30
    2f4e:	ff 93       	push	r31
    2f50:	e0 91 c6 2b 	lds	r30, 0x2BC6
    2f54:	f0 91 c7 2b 	lds	r31, 0x2BC7
    2f58:	30 97       	sbiw	r30, 0x00	; 0
    2f5a:	09 f0       	breq	.+2      	; 0x2f5e <__vector_52+0x34>
    2f5c:	09 95       	icall
    2f5e:	ff 91       	pop	r31
    2f60:	ef 91       	pop	r30
    2f62:	bf 91       	pop	r27
    2f64:	af 91       	pop	r26
    2f66:	9f 91       	pop	r25
    2f68:	8f 91       	pop	r24
    2f6a:	7f 91       	pop	r23
    2f6c:	6f 91       	pop	r22
    2f6e:	5f 91       	pop	r21
    2f70:	4f 91       	pop	r20
    2f72:	3f 91       	pop	r19
    2f74:	2f 91       	pop	r18
    2f76:	0f 90       	pop	r0
    2f78:	0b be       	out	0x3b, r0	; 59
    2f7a:	0f 90       	pop	r0
    2f7c:	0f be       	out	0x3f, r0	; 63
    2f7e:	0f 90       	pop	r0
    2f80:	1f 90       	pop	r1
    2f82:	18 95       	reti

00002f84 <__vector_108>:
    2f84:	1f 92       	push	r1
    2f86:	0f 92       	push	r0
    2f88:	0f b6       	in	r0, 0x3f	; 63
    2f8a:	0f 92       	push	r0
    2f8c:	11 24       	eor	r1, r1
    2f8e:	0b b6       	in	r0, 0x3b	; 59
    2f90:	0f 92       	push	r0
    2f92:	2f 93       	push	r18
    2f94:	3f 93       	push	r19
    2f96:	4f 93       	push	r20
    2f98:	5f 93       	push	r21
    2f9a:	6f 93       	push	r22
    2f9c:	7f 93       	push	r23
    2f9e:	8f 93       	push	r24
    2fa0:	9f 93       	push	r25
    2fa2:	af 93       	push	r26
    2fa4:	bf 93       	push	r27
    2fa6:	ef 93       	push	r30
    2fa8:	ff 93       	push	r31
    2faa:	e0 91 c8 2b 	lds	r30, 0x2BC8
    2fae:	f0 91 c9 2b 	lds	r31, 0x2BC9
    2fb2:	30 97       	sbiw	r30, 0x00	; 0
    2fb4:	09 f0       	breq	.+2      	; 0x2fb8 <__vector_108+0x34>
    2fb6:	09 95       	icall
    2fb8:	ff 91       	pop	r31
    2fba:	ef 91       	pop	r30
    2fbc:	bf 91       	pop	r27
    2fbe:	af 91       	pop	r26
    2fc0:	9f 91       	pop	r25
    2fc2:	8f 91       	pop	r24
    2fc4:	7f 91       	pop	r23
    2fc6:	6f 91       	pop	r22
    2fc8:	5f 91       	pop	r21
    2fca:	4f 91       	pop	r20
    2fcc:	3f 91       	pop	r19
    2fce:	2f 91       	pop	r18
    2fd0:	0f 90       	pop	r0
    2fd2:	0b be       	out	0x3b, r0	; 59
    2fd4:	0f 90       	pop	r0
    2fd6:	0f be       	out	0x3f, r0	; 63
    2fd8:	0f 90       	pop	r0
    2fda:	1f 90       	pop	r1
    2fdc:	18 95       	reti

00002fde <__vector_109>:
    2fde:	1f 92       	push	r1
    2fe0:	0f 92       	push	r0
    2fe2:	0f b6       	in	r0, 0x3f	; 63
    2fe4:	0f 92       	push	r0
    2fe6:	11 24       	eor	r1, r1
    2fe8:	0b b6       	in	r0, 0x3b	; 59
    2fea:	0f 92       	push	r0
    2fec:	2f 93       	push	r18
    2fee:	3f 93       	push	r19
    2ff0:	4f 93       	push	r20
    2ff2:	5f 93       	push	r21
    2ff4:	6f 93       	push	r22
    2ff6:	7f 93       	push	r23
    2ff8:	8f 93       	push	r24
    2ffa:	9f 93       	push	r25
    2ffc:	af 93       	push	r26
    2ffe:	bf 93       	push	r27
    3000:	ef 93       	push	r30
    3002:	ff 93       	push	r31
    3004:	e0 91 ca 2b 	lds	r30, 0x2BCA
    3008:	f0 91 cb 2b 	lds	r31, 0x2BCB
    300c:	30 97       	sbiw	r30, 0x00	; 0
    300e:	09 f0       	breq	.+2      	; 0x3012 <__stack+0x13>
    3010:	09 95       	icall
    3012:	ff 91       	pop	r31
    3014:	ef 91       	pop	r30
    3016:	bf 91       	pop	r27
    3018:	af 91       	pop	r26
    301a:	9f 91       	pop	r25
    301c:	8f 91       	pop	r24
    301e:	7f 91       	pop	r23
    3020:	6f 91       	pop	r22
    3022:	5f 91       	pop	r21
    3024:	4f 91       	pop	r20
    3026:	3f 91       	pop	r19
    3028:	2f 91       	pop	r18
    302a:	0f 90       	pop	r0
    302c:	0b be       	out	0x3b, r0	; 59
    302e:	0f 90       	pop	r0
    3030:	0f be       	out	0x3f, r0	; 63
    3032:	0f 90       	pop	r0
    3034:	1f 90       	pop	r1
    3036:	18 95       	reti

00003038 <__vector_110>:
    3038:	1f 92       	push	r1
    303a:	0f 92       	push	r0
    303c:	0f b6       	in	r0, 0x3f	; 63
    303e:	0f 92       	push	r0
    3040:	11 24       	eor	r1, r1
    3042:	0b b6       	in	r0, 0x3b	; 59
    3044:	0f 92       	push	r0
    3046:	2f 93       	push	r18
    3048:	3f 93       	push	r19
    304a:	4f 93       	push	r20
    304c:	5f 93       	push	r21
    304e:	6f 93       	push	r22
    3050:	7f 93       	push	r23
    3052:	8f 93       	push	r24
    3054:	9f 93       	push	r25
    3056:	af 93       	push	r26
    3058:	bf 93       	push	r27
    305a:	ef 93       	push	r30
    305c:	ff 93       	push	r31
    305e:	e0 91 cc 2b 	lds	r30, 0x2BCC
    3062:	f0 91 cd 2b 	lds	r31, 0x2BCD
    3066:	30 97       	sbiw	r30, 0x00	; 0
    3068:	09 f0       	breq	.+2      	; 0x306c <__vector_110+0x34>
    306a:	09 95       	icall
    306c:	ff 91       	pop	r31
    306e:	ef 91       	pop	r30
    3070:	bf 91       	pop	r27
    3072:	af 91       	pop	r26
    3074:	9f 91       	pop	r25
    3076:	8f 91       	pop	r24
    3078:	7f 91       	pop	r23
    307a:	6f 91       	pop	r22
    307c:	5f 91       	pop	r21
    307e:	4f 91       	pop	r20
    3080:	3f 91       	pop	r19
    3082:	2f 91       	pop	r18
    3084:	0f 90       	pop	r0
    3086:	0b be       	out	0x3b, r0	; 59
    3088:	0f 90       	pop	r0
    308a:	0f be       	out	0x3f, r0	; 63
    308c:	0f 90       	pop	r0
    308e:	1f 90       	pop	r1
    3090:	18 95       	reti

00003092 <__vector_111>:
    3092:	1f 92       	push	r1
    3094:	0f 92       	push	r0
    3096:	0f b6       	in	r0, 0x3f	; 63
    3098:	0f 92       	push	r0
    309a:	11 24       	eor	r1, r1
    309c:	0b b6       	in	r0, 0x3b	; 59
    309e:	0f 92       	push	r0
    30a0:	2f 93       	push	r18
    30a2:	3f 93       	push	r19
    30a4:	4f 93       	push	r20
    30a6:	5f 93       	push	r21
    30a8:	6f 93       	push	r22
    30aa:	7f 93       	push	r23
    30ac:	8f 93       	push	r24
    30ae:	9f 93       	push	r25
    30b0:	af 93       	push	r26
    30b2:	bf 93       	push	r27
    30b4:	ef 93       	push	r30
    30b6:	ff 93       	push	r31
    30b8:	e0 91 ce 2b 	lds	r30, 0x2BCE
    30bc:	f0 91 cf 2b 	lds	r31, 0x2BCF
    30c0:	30 97       	sbiw	r30, 0x00	; 0
    30c2:	09 f0       	breq	.+2      	; 0x30c6 <__vector_111+0x34>
    30c4:	09 95       	icall
    30c6:	ff 91       	pop	r31
    30c8:	ef 91       	pop	r30
    30ca:	bf 91       	pop	r27
    30cc:	af 91       	pop	r26
    30ce:	9f 91       	pop	r25
    30d0:	8f 91       	pop	r24
    30d2:	7f 91       	pop	r23
    30d4:	6f 91       	pop	r22
    30d6:	5f 91       	pop	r21
    30d8:	4f 91       	pop	r20
    30da:	3f 91       	pop	r19
    30dc:	2f 91       	pop	r18
    30de:	0f 90       	pop	r0
    30e0:	0b be       	out	0x3b, r0	; 59
    30e2:	0f 90       	pop	r0
    30e4:	0f be       	out	0x3f, r0	; 63
    30e6:	0f 90       	pop	r0
    30e8:	1f 90       	pop	r1
    30ea:	18 95       	reti

000030ec <__vector_112>:
    30ec:	1f 92       	push	r1
    30ee:	0f 92       	push	r0
    30f0:	0f b6       	in	r0, 0x3f	; 63
    30f2:	0f 92       	push	r0
    30f4:	11 24       	eor	r1, r1
    30f6:	0b b6       	in	r0, 0x3b	; 59
    30f8:	0f 92       	push	r0
    30fa:	2f 93       	push	r18
    30fc:	3f 93       	push	r19
    30fe:	4f 93       	push	r20
    3100:	5f 93       	push	r21
    3102:	6f 93       	push	r22
    3104:	7f 93       	push	r23
    3106:	8f 93       	push	r24
    3108:	9f 93       	push	r25
    310a:	af 93       	push	r26
    310c:	bf 93       	push	r27
    310e:	ef 93       	push	r30
    3110:	ff 93       	push	r31
    3112:	e0 91 d0 2b 	lds	r30, 0x2BD0
    3116:	f0 91 d1 2b 	lds	r31, 0x2BD1
    311a:	30 97       	sbiw	r30, 0x00	; 0
    311c:	09 f0       	breq	.+2      	; 0x3120 <__vector_112+0x34>
    311e:	09 95       	icall
    3120:	ff 91       	pop	r31
    3122:	ef 91       	pop	r30
    3124:	bf 91       	pop	r27
    3126:	af 91       	pop	r26
    3128:	9f 91       	pop	r25
    312a:	8f 91       	pop	r24
    312c:	7f 91       	pop	r23
    312e:	6f 91       	pop	r22
    3130:	5f 91       	pop	r21
    3132:	4f 91       	pop	r20
    3134:	3f 91       	pop	r19
    3136:	2f 91       	pop	r18
    3138:	0f 90       	pop	r0
    313a:	0b be       	out	0x3b, r0	; 59
    313c:	0f 90       	pop	r0
    313e:	0f be       	out	0x3f, r0	; 63
    3140:	0f 90       	pop	r0
    3142:	1f 90       	pop	r1
    3144:	18 95       	reti

00003146 <__vector_113>:
    3146:	1f 92       	push	r1
    3148:	0f 92       	push	r0
    314a:	0f b6       	in	r0, 0x3f	; 63
    314c:	0f 92       	push	r0
    314e:	11 24       	eor	r1, r1
    3150:	0b b6       	in	r0, 0x3b	; 59
    3152:	0f 92       	push	r0
    3154:	2f 93       	push	r18
    3156:	3f 93       	push	r19
    3158:	4f 93       	push	r20
    315a:	5f 93       	push	r21
    315c:	6f 93       	push	r22
    315e:	7f 93       	push	r23
    3160:	8f 93       	push	r24
    3162:	9f 93       	push	r25
    3164:	af 93       	push	r26
    3166:	bf 93       	push	r27
    3168:	ef 93       	push	r30
    316a:	ff 93       	push	r31
    316c:	e0 91 d2 2b 	lds	r30, 0x2BD2
    3170:	f0 91 d3 2b 	lds	r31, 0x2BD3
    3174:	30 97       	sbiw	r30, 0x00	; 0
    3176:	09 f0       	breq	.+2      	; 0x317a <__vector_113+0x34>
    3178:	09 95       	icall
    317a:	ff 91       	pop	r31
    317c:	ef 91       	pop	r30
    317e:	bf 91       	pop	r27
    3180:	af 91       	pop	r26
    3182:	9f 91       	pop	r25
    3184:	8f 91       	pop	r24
    3186:	7f 91       	pop	r23
    3188:	6f 91       	pop	r22
    318a:	5f 91       	pop	r21
    318c:	4f 91       	pop	r20
    318e:	3f 91       	pop	r19
    3190:	2f 91       	pop	r18
    3192:	0f 90       	pop	r0
    3194:	0b be       	out	0x3b, r0	; 59
    3196:	0f 90       	pop	r0
    3198:	0f be       	out	0x3f, r0	; 63
    319a:	0f 90       	pop	r0
    319c:	1f 90       	pop	r1
    319e:	18 95       	reti

000031a0 <tc_enable>:
    31a0:	cf 93       	push	r28
    31a2:	cf b7       	in	r28, 0x3f	; 63
    31a4:	f8 94       	cli
    31a6:	81 15       	cp	r24, r1
    31a8:	28 e0       	ldi	r18, 0x08	; 8
    31aa:	92 07       	cpc	r25, r18
    31ac:	11 f4       	brne	.+4      	; 0x31b2 <tc_enable+0x12>
    31ae:	61 e0       	ldi	r22, 0x01	; 1
    31b0:	05 c0       	rjmp	.+10     	; 0x31bc <tc_enable+0x1c>
    31b2:	80 34       	cpi	r24, 0x40	; 64
    31b4:	28 e0       	ldi	r18, 0x08	; 8
    31b6:	92 07       	cpc	r25, r18
    31b8:	31 f4       	brne	.+12     	; 0x31c6 <tc_enable+0x26>
    31ba:	62 e0       	ldi	r22, 0x02	; 2
    31bc:	83 e0       	ldi	r24, 0x03	; 3
    31be:	22 d9       	rcall	.-3516   	; 0x2404 <sysclk_enable_module>
    31c0:	64 e0       	ldi	r22, 0x04	; 4
    31c2:	83 e0       	ldi	r24, 0x03	; 3
    31c4:	1c c0       	rjmp	.+56     	; 0x31fe <tc_enable+0x5e>
    31c6:	81 15       	cp	r24, r1
    31c8:	29 e0       	ldi	r18, 0x09	; 9
    31ca:	92 07       	cpc	r25, r18
    31cc:	31 f4       	brne	.+12     	; 0x31da <tc_enable+0x3a>
    31ce:	61 e0       	ldi	r22, 0x01	; 1
    31d0:	84 e0       	ldi	r24, 0x04	; 4
    31d2:	18 d9       	rcall	.-3536   	; 0x2404 <sysclk_enable_module>
    31d4:	64 e0       	ldi	r22, 0x04	; 4
    31d6:	84 e0       	ldi	r24, 0x04	; 4
    31d8:	12 c0       	rjmp	.+36     	; 0x31fe <tc_enable+0x5e>
    31da:	81 15       	cp	r24, r1
    31dc:	2a e0       	ldi	r18, 0x0A	; 10
    31de:	92 07       	cpc	r25, r18
    31e0:	31 f4       	brne	.+12     	; 0x31ee <tc_enable+0x4e>
    31e2:	61 e0       	ldi	r22, 0x01	; 1
    31e4:	85 e0       	ldi	r24, 0x05	; 5
    31e6:	0e d9       	rcall	.-3556   	; 0x2404 <sysclk_enable_module>
    31e8:	64 e0       	ldi	r22, 0x04	; 4
    31ea:	85 e0       	ldi	r24, 0x05	; 5
    31ec:	08 c0       	rjmp	.+16     	; 0x31fe <tc_enable+0x5e>
    31ee:	81 15       	cp	r24, r1
    31f0:	9b 40       	sbci	r25, 0x0B	; 11
    31f2:	71 f4       	brne	.+28     	; 0x3210 <tc_enable+0x70>
    31f4:	61 e0       	ldi	r22, 0x01	; 1
    31f6:	86 e0       	ldi	r24, 0x06	; 6
    31f8:	05 d9       	rcall	.-3574   	; 0x2404 <sysclk_enable_module>
    31fa:	64 e0       	ldi	r22, 0x04	; 4
    31fc:	86 e0       	ldi	r24, 0x06	; 6
    31fe:	02 d9       	rcall	.-3580   	; 0x2404 <sysclk_enable_module>
    3200:	9f b7       	in	r25, 0x3f	; 63
    3202:	f8 94       	cli
    3204:	80 91 6d 2c 	lds	r24, 0x2C6D
    3208:	8f 5f       	subi	r24, 0xFF	; 255
    320a:	80 93 6d 2c 	sts	0x2C6D, r24
    320e:	9f bf       	out	0x3f, r25	; 63
    3210:	cf bf       	out	0x3f, r28	; 63
    3212:	cf 91       	pop	r28
    3214:	08 95       	ret

00003216 <tc_disable>:
    3216:	cf 93       	push	r28
    3218:	cf b7       	in	r28, 0x3f	; 63
    321a:	f8 94       	cli
    321c:	3f b7       	in	r19, 0x3f	; 63
    321e:	f8 94       	cli
    3220:	20 91 6d 2c 	lds	r18, 0x2C6D
    3224:	21 50       	subi	r18, 0x01	; 1
    3226:	20 93 6d 2c 	sts	0x2C6D, r18
    322a:	3f bf       	out	0x3f, r19	; 63
    322c:	81 15       	cp	r24, r1
    322e:	28 e0       	ldi	r18, 0x08	; 8
    3230:	92 07       	cpc	r25, r18
    3232:	11 f4       	brne	.+4      	; 0x3238 <tc_disable+0x22>
    3234:	61 e0       	ldi	r22, 0x01	; 1
    3236:	05 c0       	rjmp	.+10     	; 0x3242 <tc_disable+0x2c>
    3238:	80 34       	cpi	r24, 0x40	; 64
    323a:	28 e0       	ldi	r18, 0x08	; 8
    323c:	92 07       	cpc	r25, r18
    323e:	31 f4       	brne	.+12     	; 0x324c <tc_disable+0x36>
    3240:	62 e0       	ldi	r22, 0x02	; 2
    3242:	83 e0       	ldi	r24, 0x03	; 3
    3244:	eb d8       	rcall	.-3626   	; 0x241c <sysclk_disable_module>
    3246:	64 e0       	ldi	r22, 0x04	; 4
    3248:	83 e0       	ldi	r24, 0x03	; 3
    324a:	1c c0       	rjmp	.+56     	; 0x3284 <tc_disable+0x6e>
    324c:	81 15       	cp	r24, r1
    324e:	29 e0       	ldi	r18, 0x09	; 9
    3250:	92 07       	cpc	r25, r18
    3252:	31 f4       	brne	.+12     	; 0x3260 <tc_disable+0x4a>
    3254:	61 e0       	ldi	r22, 0x01	; 1
    3256:	84 e0       	ldi	r24, 0x04	; 4
    3258:	e1 d8       	rcall	.-3646   	; 0x241c <sysclk_disable_module>
    325a:	64 e0       	ldi	r22, 0x04	; 4
    325c:	84 e0       	ldi	r24, 0x04	; 4
    325e:	12 c0       	rjmp	.+36     	; 0x3284 <tc_disable+0x6e>
    3260:	81 15       	cp	r24, r1
    3262:	2a e0       	ldi	r18, 0x0A	; 10
    3264:	92 07       	cpc	r25, r18
    3266:	31 f4       	brne	.+12     	; 0x3274 <tc_disable+0x5e>
    3268:	61 e0       	ldi	r22, 0x01	; 1
    326a:	85 e0       	ldi	r24, 0x05	; 5
    326c:	d7 d8       	rcall	.-3666   	; 0x241c <sysclk_disable_module>
    326e:	64 e0       	ldi	r22, 0x04	; 4
    3270:	85 e0       	ldi	r24, 0x05	; 5
    3272:	08 c0       	rjmp	.+16     	; 0x3284 <tc_disable+0x6e>
    3274:	81 15       	cp	r24, r1
    3276:	9b 40       	sbci	r25, 0x0B	; 11
    3278:	31 f4       	brne	.+12     	; 0x3286 <tc_disable+0x70>
    327a:	61 e0       	ldi	r22, 0x01	; 1
    327c:	86 e0       	ldi	r24, 0x06	; 6
    327e:	ce d8       	rcall	.-3684   	; 0x241c <sysclk_disable_module>
    3280:	64 e0       	ldi	r22, 0x04	; 4
    3282:	86 e0       	ldi	r24, 0x06	; 6
    3284:	cb d8       	rcall	.-3690   	; 0x241c <sysclk_disable_module>
    3286:	cf bf       	out	0x3f, r28	; 63
    3288:	cf 91       	pop	r28
    328a:	08 95       	ret

0000328c <tc_set_overflow_interrupt_callback>:
    328c:	81 15       	cp	r24, r1
    328e:	28 e0       	ldi	r18, 0x08	; 8
    3290:	92 07       	cpc	r25, r18
    3292:	29 f4       	brne	.+10     	; 0x329e <tc_set_overflow_interrupt_callback+0x12>
    3294:	60 93 9c 2b 	sts	0x2B9C, r22
    3298:	70 93 9d 2b 	sts	0x2B9D, r23
    329c:	08 95       	ret
    329e:	80 34       	cpi	r24, 0x40	; 64
    32a0:	28 e0       	ldi	r18, 0x08	; 8
    32a2:	92 07       	cpc	r25, r18
    32a4:	29 f4       	brne	.+10     	; 0x32b0 <tc_set_overflow_interrupt_callback+0x24>
    32a6:	60 93 a8 2b 	sts	0x2BA8, r22
    32aa:	70 93 a9 2b 	sts	0x2BA9, r23
    32ae:	08 95       	ret
    32b0:	81 15       	cp	r24, r1
    32b2:	29 e0       	ldi	r18, 0x09	; 9
    32b4:	92 07       	cpc	r25, r18
    32b6:	29 f4       	brne	.+10     	; 0x32c2 <tc_set_overflow_interrupt_callback+0x36>
    32b8:	60 93 b0 2b 	sts	0x2BB0, r22
    32bc:	70 93 b1 2b 	sts	0x2BB1, r23
    32c0:	08 95       	ret
    32c2:	81 15       	cp	r24, r1
    32c4:	2a e0       	ldi	r18, 0x0A	; 10
    32c6:	92 07       	cpc	r25, r18
    32c8:	29 f4       	brne	.+10     	; 0x32d4 <tc_set_overflow_interrupt_callback+0x48>
    32ca:	60 93 bc 2b 	sts	0x2BBC, r22
    32ce:	70 93 bd 2b 	sts	0x2BBD, r23
    32d2:	08 95       	ret
    32d4:	81 15       	cp	r24, r1
    32d6:	9b 40       	sbci	r25, 0x0B	; 11
    32d8:	21 f4       	brne	.+8      	; 0x32e2 <tc_set_overflow_interrupt_callback+0x56>
    32da:	60 93 c8 2b 	sts	0x2BC8, r22
    32de:	70 93 c9 2b 	sts	0x2BC9, r23
    32e2:	08 95       	ret

000032e4 <usart_enable_module_clock>:
    32e4:	80 3a       	cpi	r24, 0xA0	; 160
    32e6:	28 e0       	ldi	r18, 0x08	; 8
    32e8:	92 07       	cpc	r25, r18
    32ea:	19 f4       	brne	.+6      	; 0x32f2 <usart_enable_module_clock+0xe>
    32ec:	60 e1       	ldi	r22, 0x10	; 16
    32ee:	83 e0       	ldi	r24, 0x03	; 3
    32f0:	0c c0       	rjmp	.+24     	; 0x330a <usart_enable_module_clock+0x26>
    32f2:	80 3a       	cpi	r24, 0xA0	; 160
    32f4:	29 e0       	ldi	r18, 0x09	; 9
    32f6:	92 07       	cpc	r25, r18
    32f8:	19 f4       	brne	.+6      	; 0x3300 <usart_enable_module_clock+0x1c>
    32fa:	60 e1       	ldi	r22, 0x10	; 16
    32fc:	84 e0       	ldi	r24, 0x04	; 4
    32fe:	05 c0       	rjmp	.+10     	; 0x330a <usart_enable_module_clock+0x26>
    3300:	80 3a       	cpi	r24, 0xA0	; 160
    3302:	9a 40       	sbci	r25, 0x0A	; 10
    3304:	19 f4       	brne	.+6      	; 0x330c <usart_enable_module_clock+0x28>
    3306:	60 e1       	ldi	r22, 0x10	; 16
    3308:	85 e0       	ldi	r24, 0x05	; 5
    330a:	7c c8       	rjmp	.-3848   	; 0x2404 <sysclk_enable_module>
    330c:	08 95       	ret

0000330e <usart_putchar>:
    330e:	fc 01       	movw	r30, r24
    3310:	21 81       	ldd	r18, Z+1	; 0x01
    3312:	25 ff       	sbrs	r18, 5
    3314:	fc cf       	rjmp	.-8      	; 0x330e <usart_putchar>
    3316:	60 83       	st	Z, r22
    3318:	80 e0       	ldi	r24, 0x00	; 0
    331a:	90 e0       	ldi	r25, 0x00	; 0
    331c:	08 95       	ret

0000331e <usart_set_baudrate>:
    331e:	8f 92       	push	r8
    3320:	9f 92       	push	r9
    3322:	af 92       	push	r10
    3324:	bf 92       	push	r11
    3326:	cf 92       	push	r12
    3328:	df 92       	push	r13
    332a:	ef 92       	push	r14
    332c:	ff 92       	push	r15
    332e:	0f 93       	push	r16
    3330:	1f 93       	push	r17
    3332:	cf 93       	push	r28
    3334:	df 93       	push	r29
    3336:	ec 01       	movw	r28, r24
    3338:	6a 01       	movw	r12, r20
    333a:	7b 01       	movw	r14, r22
    333c:	48 01       	movw	r8, r16
    333e:	59 01       	movw	r10, r18
    3340:	b9 01       	movw	r22, r18
    3342:	a8 01       	movw	r20, r16
    3344:	a3 e0       	ldi	r26, 0x03	; 3
    3346:	76 95       	lsr	r23
    3348:	67 95       	ror	r22
    334a:	57 95       	ror	r21
    334c:	47 95       	ror	r20
    334e:	aa 95       	dec	r26
    3350:	d1 f7       	brne	.-12     	; 0x3346 <usart_set_baudrate+0x28>
    3352:	d9 01       	movw	r26, r18
    3354:	c8 01       	movw	r24, r16
    3356:	16 e1       	ldi	r17, 0x16	; 22
    3358:	b6 95       	lsr	r27
    335a:	a7 95       	ror	r26
    335c:	97 95       	ror	r25
    335e:	87 95       	ror	r24
    3360:	1a 95       	dec	r17
    3362:	d1 f7       	brne	.-12     	; 0x3358 <usart_set_baudrate+0x3a>
    3364:	2c 81       	ldd	r18, Y+4	; 0x04
    3366:	22 fd       	sbrc	r18, 2
    3368:	08 c0       	rjmp	.+16     	; 0x337a <usart_set_baudrate+0x5c>
    336a:	76 95       	lsr	r23
    336c:	67 95       	ror	r22
    336e:	57 95       	ror	r21
    3370:	47 95       	ror	r20
    3372:	b6 95       	lsr	r27
    3374:	a7 95       	ror	r26
    3376:	97 95       	ror	r25
    3378:	87 95       	ror	r24
    337a:	4c 15       	cp	r20, r12
    337c:	5d 05       	cpc	r21, r13
    337e:	6e 05       	cpc	r22, r14
    3380:	7f 05       	cpc	r23, r15
    3382:	08 f4       	brcc	.+2      	; 0x3386 <usart_set_baudrate+0x68>
    3384:	9b c0       	rjmp	.+310    	; 0x34bc <usart_set_baudrate+0x19e>
    3386:	c8 16       	cp	r12, r24
    3388:	d9 06       	cpc	r13, r25
    338a:	ea 06       	cpc	r14, r26
    338c:	fb 06       	cpc	r15, r27
    338e:	08 f4       	brcc	.+2      	; 0x3392 <usart_set_baudrate+0x74>
    3390:	95 c0       	rjmp	.+298    	; 0x34bc <usart_set_baudrate+0x19e>
    3392:	8c 81       	ldd	r24, Y+4	; 0x04
    3394:	82 fd       	sbrc	r24, 2
    3396:	04 c0       	rjmp	.+8      	; 0x33a0 <usart_set_baudrate+0x82>
    3398:	cc 0c       	add	r12, r12
    339a:	dd 1c       	adc	r13, r13
    339c:	ee 1c       	adc	r14, r14
    339e:	ff 1c       	adc	r15, r15
    33a0:	c5 01       	movw	r24, r10
    33a2:	b4 01       	movw	r22, r8
    33a4:	a7 01       	movw	r20, r14
    33a6:	96 01       	movw	r18, r12
    33a8:	53 d7       	rcall	.+3750   	; 0x4250 <__udivmodsi4>
    33aa:	8f ef       	ldi	r24, 0xFF	; 255
    33ac:	90 e0       	ldi	r25, 0x00	; 0
    33ae:	a0 e0       	ldi	r26, 0x00	; 0
    33b0:	b0 e0       	ldi	r27, 0x00	; 0
    33b2:	19 ef       	ldi	r17, 0xF9	; 249
    33b4:	28 17       	cp	r18, r24
    33b6:	39 07       	cpc	r19, r25
    33b8:	4a 07       	cpc	r20, r26
    33ba:	5b 07       	cpc	r21, r27
    33bc:	58 f0       	brcs	.+22     	; 0x33d4 <usart_set_baudrate+0xb6>
    33be:	88 0f       	add	r24, r24
    33c0:	99 1f       	adc	r25, r25
    33c2:	aa 1f       	adc	r26, r26
    33c4:	bb 1f       	adc	r27, r27
    33c6:	1d 3f       	cpi	r17, 0xFD	; 253
    33c8:	0c f4       	brge	.+2      	; 0x33cc <usart_set_baudrate+0xae>
    33ca:	81 60       	ori	r24, 0x01	; 1
    33cc:	1f 5f       	subi	r17, 0xFF	; 255
    33ce:	17 30       	cpi	r17, 0x07	; 7
    33d0:	89 f7       	brne	.-30     	; 0x33b4 <usart_set_baudrate+0x96>
    33d2:	4b c0       	rjmp	.+150    	; 0x346a <usart_set_baudrate+0x14c>
    33d4:	17 ff       	sbrs	r17, 7
    33d6:	49 c0       	rjmp	.+146    	; 0x346a <usart_set_baudrate+0x14c>
    33d8:	d7 01       	movw	r26, r14
    33da:	c6 01       	movw	r24, r12
    33dc:	03 e0       	ldi	r16, 0x03	; 3
    33de:	88 0f       	add	r24, r24
    33e0:	99 1f       	adc	r25, r25
    33e2:	aa 1f       	adc	r26, r26
    33e4:	bb 1f       	adc	r27, r27
    33e6:	0a 95       	dec	r16
    33e8:	d1 f7       	brne	.-12     	; 0x33de <usart_set_baudrate+0xc0>
    33ea:	88 1a       	sub	r8, r24
    33ec:	99 0a       	sbc	r9, r25
    33ee:	aa 0a       	sbc	r10, r26
    33f0:	bb 0a       	sbc	r11, r27
    33f2:	81 2f       	mov	r24, r17
    33f4:	99 27       	eor	r25, r25
    33f6:	87 fd       	sbrc	r24, 7
    33f8:	90 95       	com	r25
    33fa:	1e 3f       	cpi	r17, 0xFE	; 254
    33fc:	e4 f4       	brge	.+56     	; 0x3436 <usart_set_baudrate+0x118>
    33fe:	6d ef       	ldi	r22, 0xFD	; 253
    3400:	7f ef       	ldi	r23, 0xFF	; 255
    3402:	68 1b       	sub	r22, r24
    3404:	79 0b       	sbc	r23, r25
    3406:	a5 01       	movw	r20, r10
    3408:	94 01       	movw	r18, r8
    340a:	04 c0       	rjmp	.+8      	; 0x3414 <usart_set_baudrate+0xf6>
    340c:	22 0f       	add	r18, r18
    340e:	33 1f       	adc	r19, r19
    3410:	44 1f       	adc	r20, r20
    3412:	55 1f       	adc	r21, r21
    3414:	6a 95       	dec	r22
    3416:	d2 f7       	brpl	.-12     	; 0x340c <usart_set_baudrate+0xee>
    3418:	ca 01       	movw	r24, r20
    341a:	b9 01       	movw	r22, r18
    341c:	46 01       	movw	r8, r12
    341e:	57 01       	movw	r10, r14
    3420:	b6 94       	lsr	r11
    3422:	a7 94       	ror	r10
    3424:	97 94       	ror	r9
    3426:	87 94       	ror	r8
    3428:	68 0d       	add	r22, r8
    342a:	79 1d       	adc	r23, r9
    342c:	8a 1d       	adc	r24, r10
    342e:	9b 1d       	adc	r25, r11
    3430:	a7 01       	movw	r20, r14
    3432:	96 01       	movw	r18, r12
    3434:	18 c0       	rjmp	.+48     	; 0x3466 <usart_set_baudrate+0x148>
    3436:	9c 01       	movw	r18, r24
    3438:	2d 5f       	subi	r18, 0xFD	; 253
    343a:	3f 4f       	sbci	r19, 0xFF	; 255
    343c:	d7 01       	movw	r26, r14
    343e:	c6 01       	movw	r24, r12
    3440:	04 c0       	rjmp	.+8      	; 0x344a <usart_set_baudrate+0x12c>
    3442:	88 0f       	add	r24, r24
    3444:	99 1f       	adc	r25, r25
    3446:	aa 1f       	adc	r26, r26
    3448:	bb 1f       	adc	r27, r27
    344a:	2a 95       	dec	r18
    344c:	d2 f7       	brpl	.-12     	; 0x3442 <usart_set_baudrate+0x124>
    344e:	9c 01       	movw	r18, r24
    3450:	ad 01       	movw	r20, r26
    3452:	bc 01       	movw	r22, r24
    3454:	cd 01       	movw	r24, r26
    3456:	96 95       	lsr	r25
    3458:	87 95       	ror	r24
    345a:	77 95       	ror	r23
    345c:	67 95       	ror	r22
    345e:	68 0d       	add	r22, r8
    3460:	79 1d       	adc	r23, r9
    3462:	8a 1d       	adc	r24, r10
    3464:	9b 1d       	adc	r25, r11
    3466:	f4 d6       	rcall	.+3560   	; 0x4250 <__udivmodsi4>
    3468:	20 c0       	rjmp	.+64     	; 0x34aa <usart_set_baudrate+0x18c>
    346a:	21 2f       	mov	r18, r17
    346c:	33 27       	eor	r19, r19
    346e:	27 fd       	sbrc	r18, 7
    3470:	30 95       	com	r19
    3472:	2d 5f       	subi	r18, 0xFD	; 253
    3474:	3f 4f       	sbci	r19, 0xFF	; 255
    3476:	d7 01       	movw	r26, r14
    3478:	c6 01       	movw	r24, r12
    347a:	04 c0       	rjmp	.+8      	; 0x3484 <usart_set_baudrate+0x166>
    347c:	88 0f       	add	r24, r24
    347e:	99 1f       	adc	r25, r25
    3480:	aa 1f       	adc	r26, r26
    3482:	bb 1f       	adc	r27, r27
    3484:	2a 95       	dec	r18
    3486:	d2 f7       	brpl	.-12     	; 0x347c <usart_set_baudrate+0x15e>
    3488:	9c 01       	movw	r18, r24
    348a:	ad 01       	movw	r20, r26
    348c:	bc 01       	movw	r22, r24
    348e:	cd 01       	movw	r24, r26
    3490:	96 95       	lsr	r25
    3492:	87 95       	ror	r24
    3494:	77 95       	ror	r23
    3496:	67 95       	ror	r22
    3498:	68 0d       	add	r22, r8
    349a:	79 1d       	adc	r23, r9
    349c:	8a 1d       	adc	r24, r10
    349e:	9b 1d       	adc	r25, r11
    34a0:	d7 d6       	rcall	.+3502   	; 0x4250 <__udivmodsi4>
    34a2:	21 50       	subi	r18, 0x01	; 1
    34a4:	31 09       	sbc	r19, r1
    34a6:	41 09       	sbc	r20, r1
    34a8:	51 09       	sbc	r21, r1
    34aa:	83 2f       	mov	r24, r19
    34ac:	8f 70       	andi	r24, 0x0F	; 15
    34ae:	12 95       	swap	r17
    34b0:	10 7f       	andi	r17, 0xF0	; 240
    34b2:	81 2b       	or	r24, r17
    34b4:	8f 83       	std	Y+7, r24	; 0x07
    34b6:	2e 83       	std	Y+6, r18	; 0x06
    34b8:	81 e0       	ldi	r24, 0x01	; 1
    34ba:	01 c0       	rjmp	.+2      	; 0x34be <usart_set_baudrate+0x1a0>
    34bc:	80 e0       	ldi	r24, 0x00	; 0
    34be:	df 91       	pop	r29
    34c0:	cf 91       	pop	r28
    34c2:	1f 91       	pop	r17
    34c4:	0f 91       	pop	r16
    34c6:	ff 90       	pop	r15
    34c8:	ef 90       	pop	r14
    34ca:	df 90       	pop	r13
    34cc:	cf 90       	pop	r12
    34ce:	bf 90       	pop	r11
    34d0:	af 90       	pop	r10
    34d2:	9f 90       	pop	r9
    34d4:	8f 90       	pop	r8
    34d6:	08 95       	ret

000034d8 <usart_init_rs232>:
    34d8:	0f 93       	push	r16
    34da:	1f 93       	push	r17
    34dc:	cf 93       	push	r28
    34de:	df 93       	push	r29
    34e0:	ec 01       	movw	r28, r24
    34e2:	8b 01       	movw	r16, r22
    34e4:	ff de       	rcall	.-514    	; 0x32e4 <usart_enable_module_clock>
    34e6:	8d 81       	ldd	r24, Y+5	; 0x05
    34e8:	8f 73       	andi	r24, 0x3F	; 63
    34ea:	8d 83       	std	Y+5, r24	; 0x05
    34ec:	f8 01       	movw	r30, r16
    34ee:	84 81       	ldd	r24, Z+4	; 0x04
    34f0:	95 81       	ldd	r25, Z+5	; 0x05
    34f2:	89 2b       	or	r24, r25
    34f4:	96 81       	ldd	r25, Z+6	; 0x06
    34f6:	99 23       	and	r25, r25
    34f8:	11 f0       	breq	.+4      	; 0x34fe <usart_init_rs232+0x26>
    34fa:	98 e0       	ldi	r25, 0x08	; 8
    34fc:	01 c0       	rjmp	.+2      	; 0x3500 <usart_init_rs232+0x28>
    34fe:	90 e0       	ldi	r25, 0x00	; 0
    3500:	89 2b       	or	r24, r25
    3502:	8d 83       	std	Y+5, r24	; 0x05
    3504:	f8 01       	movw	r30, r16
    3506:	40 81       	ld	r20, Z
    3508:	51 81       	ldd	r21, Z+1	; 0x01
    350a:	62 81       	ldd	r22, Z+2	; 0x02
    350c:	73 81       	ldd	r23, Z+3	; 0x03
    350e:	00 e0       	ldi	r16, 0x00	; 0
    3510:	18 e4       	ldi	r17, 0x48	; 72
    3512:	28 ee       	ldi	r18, 0xE8	; 232
    3514:	31 e0       	ldi	r19, 0x01	; 1
    3516:	ce 01       	movw	r24, r28
    3518:	02 df       	rcall	.-508    	; 0x331e <usart_set_baudrate>
    351a:	9c 81       	ldd	r25, Y+4	; 0x04
    351c:	98 60       	ori	r25, 0x08	; 8
    351e:	9c 83       	std	Y+4, r25	; 0x04
    3520:	9c 81       	ldd	r25, Y+4	; 0x04
    3522:	90 61       	ori	r25, 0x10	; 16
    3524:	9c 83       	std	Y+4, r25	; 0x04
    3526:	df 91       	pop	r29
    3528:	cf 91       	pop	r28
    352a:	1f 91       	pop	r17
    352c:	0f 91       	pop	r16
    352e:	08 95       	ret

00003530 <wdt_wait_while_busy>:
    3530:	80 91 82 00 	lds	r24, 0x0082
    3534:	80 fd       	sbrc	r24, 0
    3536:	fc cf       	rjmp	.-8      	; 0x3530 <wdt_wait_while_busy>
    3538:	08 95       	ret

0000353a <wdt_set_timeout_period>:
    353a:	60 91 80 00 	lds	r22, 0x0080
    353e:	24 e0       	ldi	r18, 0x04	; 4
    3540:	82 9f       	mul	r24, r18
    3542:	c0 01       	movw	r24, r0
    3544:	11 24       	eor	r1, r1
    3546:	8c 73       	andi	r24, 0x3C	; 60
    3548:	99 27       	eor	r25, r25
    354a:	62 70       	andi	r22, 0x02	; 2
    354c:	61 60       	ori	r22, 0x01	; 1
    354e:	68 2b       	or	r22, r24
    3550:	80 e8       	ldi	r24, 0x80	; 128
    3552:	90 e0       	ldi	r25, 0x00	; 0
    3554:	39 d8       	rcall	.-3982   	; 0x25c8 <ccp_write_io>
    3556:	ec cf       	rjmp	.-40     	; 0x3530 <wdt_wait_while_busy>

00003558 <wdt_disable>:
    3558:	60 91 80 00 	lds	r22, 0x0080
    355c:	6c 7f       	andi	r22, 0xFC	; 252
    355e:	61 60       	ori	r22, 0x01	; 1
    3560:	80 e8       	ldi	r24, 0x80	; 128
    3562:	90 e0       	ldi	r25, 0x00	; 0
    3564:	31 c8       	rjmp	.-3998   	; 0x25c8 <ccp_write_io>

00003566 <wdt_enable>:
    3566:	60 91 80 00 	lds	r22, 0x0080
    356a:	6c 73       	andi	r22, 0x3C	; 60
    356c:	63 60       	ori	r22, 0x03	; 3
    356e:	80 e8       	ldi	r24, 0x80	; 128
    3570:	90 e0       	ldi	r25, 0x00	; 0
    3572:	2a d8       	rcall	.-4012   	; 0x25c8 <ccp_write_io>
    3574:	dd cf       	rjmp	.-70     	; 0x3530 <wdt_wait_while_busy>

00003576 <pwm_set_frequency>:
    3576:	cf 92       	push	r12
    3578:	df 92       	push	r13
    357a:	ef 92       	push	r14
    357c:	ff 92       	push	r15
    357e:	cf 93       	push	r28
    3580:	df 93       	push	r29
    3582:	ec 01       	movw	r28, r24
    3584:	6b 01       	movw	r12, r22
    3586:	e1 2c       	mov	r14, r1
    3588:	f1 2c       	mov	r15, r1
    358a:	60 e0       	ldi	r22, 0x00	; 0
    358c:	78 e4       	ldi	r23, 0x48	; 72
    358e:	88 ee       	ldi	r24, 0xE8	; 232
    3590:	91 e0       	ldi	r25, 0x01	; 1
    3592:	a7 01       	movw	r20, r14
    3594:	96 01       	movw	r18, r12
    3596:	5c d6       	rcall	.+3256   	; 0x4250 <__udivmodsi4>
    3598:	ca 01       	movw	r24, r20
    359a:	b9 01       	movw	r22, r18
    359c:	2f ef       	ldi	r18, 0xFF	; 255
    359e:	3f ef       	ldi	r19, 0xFF	; 255
    35a0:	40 e0       	ldi	r20, 0x00	; 0
    35a2:	50 e0       	ldi	r21, 0x00	; 0
    35a4:	55 d6       	rcall	.+3242   	; 0x4250 <__udivmodsi4>
    35a6:	21 15       	cp	r18, r1
    35a8:	31 05       	cpc	r19, r1
    35aa:	29 f4       	brne	.+10     	; 0x35b6 <pwm_set_frequency+0x40>
    35ac:	81 e0       	ldi	r24, 0x01	; 1
    35ae:	8c 83       	std	Y+4, r24	; 0x04
    35b0:	21 e0       	ldi	r18, 0x01	; 1
    35b2:	30 e0       	ldi	r19, 0x00	; 0
    35b4:	2d c0       	rjmp	.+90     	; 0x3610 <pwm_set_frequency+0x9a>
    35b6:	21 30       	cpi	r18, 0x01	; 1
    35b8:	31 05       	cpc	r19, r1
    35ba:	29 f4       	brne	.+10     	; 0x35c6 <pwm_set_frequency+0x50>
    35bc:	82 e0       	ldi	r24, 0x02	; 2
    35be:	8c 83       	std	Y+4, r24	; 0x04
    35c0:	22 e0       	ldi	r18, 0x02	; 2
    35c2:	30 e0       	ldi	r19, 0x00	; 0
    35c4:	25 c0       	rjmp	.+74     	; 0x3610 <pwm_set_frequency+0x9a>
    35c6:	24 30       	cpi	r18, 0x04	; 4
    35c8:	31 05       	cpc	r19, r1
    35ca:	28 f4       	brcc	.+10     	; 0x35d6 <pwm_set_frequency+0x60>
    35cc:	83 e0       	ldi	r24, 0x03	; 3
    35ce:	8c 83       	std	Y+4, r24	; 0x04
    35d0:	24 e0       	ldi	r18, 0x04	; 4
    35d2:	30 e0       	ldi	r19, 0x00	; 0
    35d4:	1d c0       	rjmp	.+58     	; 0x3610 <pwm_set_frequency+0x9a>
    35d6:	28 30       	cpi	r18, 0x08	; 8
    35d8:	31 05       	cpc	r19, r1
    35da:	28 f4       	brcc	.+10     	; 0x35e6 <pwm_set_frequency+0x70>
    35dc:	84 e0       	ldi	r24, 0x04	; 4
    35de:	8c 83       	std	Y+4, r24	; 0x04
    35e0:	28 e0       	ldi	r18, 0x08	; 8
    35e2:	30 e0       	ldi	r19, 0x00	; 0
    35e4:	15 c0       	rjmp	.+42     	; 0x3610 <pwm_set_frequency+0x9a>
    35e6:	20 34       	cpi	r18, 0x40	; 64
    35e8:	31 05       	cpc	r19, r1
    35ea:	28 f4       	brcc	.+10     	; 0x35f6 <pwm_set_frequency+0x80>
    35ec:	85 e0       	ldi	r24, 0x05	; 5
    35ee:	8c 83       	std	Y+4, r24	; 0x04
    35f0:	20 e4       	ldi	r18, 0x40	; 64
    35f2:	30 e0       	ldi	r19, 0x00	; 0
    35f4:	0d c0       	rjmp	.+26     	; 0x3610 <pwm_set_frequency+0x9a>
    35f6:	2f 3f       	cpi	r18, 0xFF	; 255
    35f8:	31 05       	cpc	r19, r1
    35fa:	09 f0       	breq	.+2      	; 0x35fe <pwm_set_frequency+0x88>
    35fc:	28 f4       	brcc	.+10     	; 0x3608 <pwm_set_frequency+0x92>
    35fe:	86 e0       	ldi	r24, 0x06	; 6
    3600:	8c 83       	std	Y+4, r24	; 0x04
    3602:	20 e0       	ldi	r18, 0x00	; 0
    3604:	31 e0       	ldi	r19, 0x01	; 1
    3606:	04 c0       	rjmp	.+8      	; 0x3610 <pwm_set_frequency+0x9a>
    3608:	87 e0       	ldi	r24, 0x07	; 7
    360a:	8c 83       	std	Y+4, r24	; 0x04
    360c:	20 e0       	ldi	r18, 0x00	; 0
    360e:	34 e0       	ldi	r19, 0x04	; 4
    3610:	40 e0       	ldi	r20, 0x00	; 0
    3612:	50 e0       	ldi	r21, 0x00	; 0
    3614:	60 e0       	ldi	r22, 0x00	; 0
    3616:	78 e4       	ldi	r23, 0x48	; 72
    3618:	88 ee       	ldi	r24, 0xE8	; 232
    361a:	91 e0       	ldi	r25, 0x01	; 1
    361c:	19 d6       	rcall	.+3122   	; 0x4250 <__udivmodsi4>
    361e:	ca 01       	movw	r24, r20
    3620:	b9 01       	movw	r22, r18
    3622:	a7 01       	movw	r20, r14
    3624:	96 01       	movw	r18, r12
    3626:	14 d6       	rcall	.+3112   	; 0x4250 <__udivmodsi4>
    3628:	2d 83       	std	Y+5, r18	; 0x05
    362a:	3e 83       	std	Y+6, r19	; 0x06
    362c:	24 36       	cpi	r18, 0x64	; 100
    362e:	31 05       	cpc	r19, r1
    3630:	18 f4       	brcc	.+6      	; 0x3638 <pwm_set_frequency+0xc2>
    3632:	1c 82       	std	Y+4, r1	; 0x04
    3634:	1d 82       	std	Y+5, r1	; 0x05
    3636:	1e 82       	std	Y+6, r1	; 0x06
    3638:	df 91       	pop	r29
    363a:	cf 91       	pop	r28
    363c:	ff 90       	pop	r15
    363e:	ef 90       	pop	r14
    3640:	df 90       	pop	r13
    3642:	cf 90       	pop	r12
    3644:	08 95       	ret

00003646 <pwm_init>:
    3646:	0f 93       	push	r16
    3648:	1f 93       	push	r17
    364a:	cf 93       	push	r28
    364c:	df 93       	push	r29
    364e:	ec 01       	movw	r28, r24
    3650:	89 01       	movw	r16, r18
    3652:	62 30       	cpi	r22, 0x02	; 2
    3654:	c1 f1       	breq	.+112    	; 0x36c6 <pwm_init+0x80>
    3656:	30 f4       	brcc	.+12     	; 0x3664 <pwm_init+0x1e>
    3658:	66 23       	and	r22, r22
    365a:	59 f0       	breq	.+22     	; 0x3672 <pwm_init+0x2c>
    365c:	61 30       	cpi	r22, 0x01	; 1
    365e:	09 f0       	breq	.+2      	; 0x3662 <pwm_init+0x1c>
    3660:	6e c0       	rjmp	.+220    	; 0x373e <pwm_init+0xf8>
    3662:	1c c0       	rjmp	.+56     	; 0x369c <pwm_init+0x56>
    3664:	64 30       	cpi	r22, 0x04	; 4
    3666:	09 f4       	brne	.+2      	; 0x366a <pwm_init+0x24>
    3668:	43 c0       	rjmp	.+134    	; 0x36f0 <pwm_init+0xaa>
    366a:	66 30       	cpi	r22, 0x06	; 6
    366c:	09 f0       	breq	.+2      	; 0x3670 <pwm_init+0x2a>
    366e:	67 c0       	rjmp	.+206    	; 0x373e <pwm_init+0xf8>
    3670:	53 c0       	rjmp	.+166    	; 0x3718 <pwm_init+0xd2>
    3672:	80 e0       	ldi	r24, 0x00	; 0
    3674:	98 e0       	ldi	r25, 0x08	; 8
    3676:	88 83       	st	Y, r24
    3678:	99 83       	std	Y+1, r25	; 0x01
    367a:	50 91 40 06 	lds	r21, 0x0640
    367e:	24 2f       	mov	r18, r20
    3680:	30 e0       	ldi	r19, 0x00	; 0
    3682:	21 50       	subi	r18, 0x01	; 1
    3684:	31 09       	sbc	r19, r1
    3686:	81 e0       	ldi	r24, 0x01	; 1
    3688:	90 e0       	ldi	r25, 0x00	; 0
    368a:	02 2e       	mov	r0, r18
    368c:	01 c0       	rjmp	.+2      	; 0x3690 <pwm_init+0x4a>
    368e:	88 0f       	add	r24, r24
    3690:	0a 94       	dec	r0
    3692:	ea f7       	brpl	.-6      	; 0x368e <pwm_init+0x48>
    3694:	58 2b       	or	r21, r24
    3696:	50 93 40 06 	sts	0x0640, r21
    369a:	51 c0       	rjmp	.+162    	; 0x373e <pwm_init+0xf8>
    369c:	80 e4       	ldi	r24, 0x40	; 64
    369e:	98 e0       	ldi	r25, 0x08	; 8
    36a0:	88 83       	st	Y, r24
    36a2:	99 83       	std	Y+1, r25	; 0x01
    36a4:	50 91 40 06 	lds	r21, 0x0640
    36a8:	24 2f       	mov	r18, r20
    36aa:	30 e0       	ldi	r19, 0x00	; 0
    36ac:	2d 5f       	subi	r18, 0xFD	; 253
    36ae:	3f 4f       	sbci	r19, 0xFF	; 255
    36b0:	81 e0       	ldi	r24, 0x01	; 1
    36b2:	90 e0       	ldi	r25, 0x00	; 0
    36b4:	02 2e       	mov	r0, r18
    36b6:	01 c0       	rjmp	.+2      	; 0x36ba <pwm_init+0x74>
    36b8:	88 0f       	add	r24, r24
    36ba:	0a 94       	dec	r0
    36bc:	ea f7       	brpl	.-6      	; 0x36b8 <pwm_init+0x72>
    36be:	58 2b       	or	r21, r24
    36c0:	50 93 40 06 	sts	0x0640, r21
    36c4:	3c c0       	rjmp	.+120    	; 0x373e <pwm_init+0xf8>
    36c6:	80 e0       	ldi	r24, 0x00	; 0
    36c8:	99 e0       	ldi	r25, 0x09	; 9
    36ca:	88 83       	st	Y, r24
    36cc:	99 83       	std	Y+1, r25	; 0x01
    36ce:	50 91 60 06 	lds	r21, 0x0660
    36d2:	24 2f       	mov	r18, r20
    36d4:	30 e0       	ldi	r19, 0x00	; 0
    36d6:	21 50       	subi	r18, 0x01	; 1
    36d8:	31 09       	sbc	r19, r1
    36da:	81 e0       	ldi	r24, 0x01	; 1
    36dc:	90 e0       	ldi	r25, 0x00	; 0
    36de:	02 2e       	mov	r0, r18
    36e0:	01 c0       	rjmp	.+2      	; 0x36e4 <pwm_init+0x9e>
    36e2:	88 0f       	add	r24, r24
    36e4:	0a 94       	dec	r0
    36e6:	ea f7       	brpl	.-6      	; 0x36e2 <pwm_init+0x9c>
    36e8:	58 2b       	or	r21, r24
    36ea:	50 93 60 06 	sts	0x0660, r21
    36ee:	27 c0       	rjmp	.+78     	; 0x373e <pwm_init+0xf8>
    36f0:	80 e0       	ldi	r24, 0x00	; 0
    36f2:	9a e0       	ldi	r25, 0x0A	; 10
    36f4:	88 83       	st	Y, r24
    36f6:	99 83       	std	Y+1, r25	; 0x01
    36f8:	20 91 80 06 	lds	r18, 0x0680
    36fc:	e4 2f       	mov	r30, r20
    36fe:	f0 e0       	ldi	r31, 0x00	; 0
    3700:	31 97       	sbiw	r30, 0x01	; 1
    3702:	81 e0       	ldi	r24, 0x01	; 1
    3704:	90 e0       	ldi	r25, 0x00	; 0
    3706:	0e 2e       	mov	r0, r30
    3708:	01 c0       	rjmp	.+2      	; 0x370c <pwm_init+0xc6>
    370a:	88 0f       	add	r24, r24
    370c:	0a 94       	dec	r0
    370e:	ea f7       	brpl	.-6      	; 0x370a <pwm_init+0xc4>
    3710:	28 2b       	or	r18, r24
    3712:	20 93 80 06 	sts	0x0680, r18
    3716:	13 c0       	rjmp	.+38     	; 0x373e <pwm_init+0xf8>
    3718:	80 e0       	ldi	r24, 0x00	; 0
    371a:	9b e0       	ldi	r25, 0x0B	; 11
    371c:	88 83       	st	Y, r24
    371e:	99 83       	std	Y+1, r25	; 0x01
    3720:	20 91 a0 06 	lds	r18, 0x06A0
    3724:	e4 2f       	mov	r30, r20
    3726:	f0 e0       	ldi	r31, 0x00	; 0
    3728:	31 97       	sbiw	r30, 0x01	; 1
    372a:	81 e0       	ldi	r24, 0x01	; 1
    372c:	90 e0       	ldi	r25, 0x00	; 0
    372e:	0e 2e       	mov	r0, r30
    3730:	01 c0       	rjmp	.+2      	; 0x3734 <pwm_init+0xee>
    3732:	88 0f       	add	r24, r24
    3734:	0a 94       	dec	r0
    3736:	ea f7       	brpl	.-6      	; 0x3732 <pwm_init+0xec>
    3738:	28 2b       	or	r18, r24
    373a:	20 93 a0 06 	sts	0x06A0, r18
    373e:	4a 83       	std	Y+2, r20	; 0x02
    3740:	42 30       	cpi	r20, 0x02	; 2
    3742:	61 f0       	breq	.+24     	; 0x375c <pwm_init+0x116>
    3744:	18 f4       	brcc	.+6      	; 0x374c <pwm_init+0x106>
    3746:	41 30       	cpi	r20, 0x01	; 1
    3748:	89 f4       	brne	.+34     	; 0x376c <pwm_init+0x126>
    374a:	05 c0       	rjmp	.+10     	; 0x3756 <pwm_init+0x110>
    374c:	43 30       	cpi	r20, 0x03	; 3
    374e:	49 f0       	breq	.+18     	; 0x3762 <pwm_init+0x11c>
    3750:	44 30       	cpi	r20, 0x04	; 4
    3752:	61 f4       	brne	.+24     	; 0x376c <pwm_init+0x126>
    3754:	09 c0       	rjmp	.+18     	; 0x3768 <pwm_init+0x122>
    3756:	80 e1       	ldi	r24, 0x10	; 16
    3758:	8b 83       	std	Y+3, r24	; 0x03
    375a:	08 c0       	rjmp	.+16     	; 0x376c <pwm_init+0x126>
    375c:	80 e2       	ldi	r24, 0x20	; 32
    375e:	8b 83       	std	Y+3, r24	; 0x03
    3760:	05 c0       	rjmp	.+10     	; 0x376c <pwm_init+0x126>
    3762:	80 e4       	ldi	r24, 0x40	; 64
    3764:	8b 83       	std	Y+3, r24	; 0x03
    3766:	02 c0       	rjmp	.+4      	; 0x376c <pwm_init+0x126>
    3768:	80 e8       	ldi	r24, 0x80	; 128
    376a:	8b 83       	std	Y+3, r24	; 0x03
    376c:	88 81       	ld	r24, Y
    376e:	99 81       	ldd	r25, Y+1	; 0x01
    3770:	17 dd       	rcall	.-1490   	; 0x31a0 <tc_enable>
    3772:	e8 81       	ld	r30, Y
    3774:	f9 81       	ldd	r31, Y+1	; 0x01
    3776:	81 81       	ldd	r24, Z+1	; 0x01
    3778:	88 7f       	andi	r24, 0xF8	; 248
    377a:	83 60       	ori	r24, 0x03	; 3
    377c:	81 83       	std	Z+1, r24	; 0x01
    377e:	1d 82       	std	Y+5, r1	; 0x05
    3780:	1e 82       	std	Y+6, r1	; 0x06
    3782:	1c 82       	std	Y+4, r1	; 0x04
    3784:	e8 81       	ld	r30, Y
    3786:	f9 81       	ldd	r31, Y+1	; 0x01
    3788:	80 81       	ld	r24, Z
    378a:	80 7f       	andi	r24, 0xF0	; 240
    378c:	80 83       	st	Z, r24
    378e:	b8 01       	movw	r22, r16
    3790:	ce 01       	movw	r24, r28
    3792:	df 91       	pop	r29
    3794:	cf 91       	pop	r28
    3796:	1f 91       	pop	r17
    3798:	0f 91       	pop	r16
    379a:	ed ce       	rjmp	.-550    	; 0x3576 <pwm_set_frequency>

0000379c <pwm_start>:
    379c:	cf 93       	push	r28
    379e:	df 93       	push	r29
    37a0:	ec 01       	movw	r28, r24
    37a2:	2d 81       	ldd	r18, Y+5	; 0x05
    37a4:	3e 81       	ldd	r19, Y+6	; 0x06
    37a6:	a6 2f       	mov	r26, r22
    37a8:	b0 e0       	ldi	r27, 0x00	; 0
    37aa:	74 d5       	rcall	.+2792   	; 0x4294 <__umulhisi3>
    37ac:	24 e6       	ldi	r18, 0x64	; 100
    37ae:	30 e0       	ldi	r19, 0x00	; 0
    37b0:	40 e0       	ldi	r20, 0x00	; 0
    37b2:	50 e0       	ldi	r21, 0x00	; 0
    37b4:	4d d5       	rcall	.+2714   	; 0x4250 <__udivmodsi4>
    37b6:	8a 81       	ldd	r24, Y+2	; 0x02
    37b8:	e8 81       	ld	r30, Y
    37ba:	f9 81       	ldd	r31, Y+1	; 0x01
    37bc:	e6 fd       	sbrc	r30, 6
    37be:	11 c0       	rjmp	.+34     	; 0x37e2 <pwm_start+0x46>
    37c0:	82 30       	cpi	r24, 0x02	; 2
    37c2:	b9 f0       	breq	.+46     	; 0x37f2 <pwm_start+0x56>
    37c4:	18 f4       	brcc	.+6      	; 0x37cc <pwm_start+0x30>
    37c6:	81 30       	cpi	r24, 0x01	; 1
    37c8:	b1 f4       	brne	.+44     	; 0x37f6 <pwm_start+0x5a>
    37ca:	10 c0       	rjmp	.+32     	; 0x37ec <pwm_start+0x50>
    37cc:	83 30       	cpi	r24, 0x03	; 3
    37ce:	19 f0       	breq	.+6      	; 0x37d6 <pwm_start+0x3a>
    37d0:	84 30       	cpi	r24, 0x04	; 4
    37d2:	89 f4       	brne	.+34     	; 0x37f6 <pwm_start+0x5a>
    37d4:	03 c0       	rjmp	.+6      	; 0x37dc <pwm_start+0x40>
    37d6:	24 af       	std	Z+60, r18	; 0x3c
    37d8:	35 af       	std	Z+61, r19	; 0x3d
    37da:	0d c0       	rjmp	.+26     	; 0x37f6 <pwm_start+0x5a>
    37dc:	26 af       	std	Z+62, r18	; 0x3e
    37de:	37 af       	std	Z+63, r19	; 0x3f
    37e0:	0a c0       	rjmp	.+20     	; 0x37f6 <pwm_start+0x5a>
    37e2:	81 30       	cpi	r24, 0x01	; 1
    37e4:	19 f0       	breq	.+6      	; 0x37ec <pwm_start+0x50>
    37e6:	82 30       	cpi	r24, 0x02	; 2
    37e8:	31 f4       	brne	.+12     	; 0x37f6 <pwm_start+0x5a>
    37ea:	03 c0       	rjmp	.+6      	; 0x37f2 <pwm_start+0x56>
    37ec:	20 af       	std	Z+56, r18	; 0x38
    37ee:	31 af       	std	Z+57, r19	; 0x39
    37f0:	02 c0       	rjmp	.+4      	; 0x37f6 <pwm_start+0x5a>
    37f2:	22 af       	std	Z+58, r18	; 0x3a
    37f4:	33 af       	std	Z+59, r19	; 0x3b
    37f6:	8d 81       	ldd	r24, Y+5	; 0x05
    37f8:	9e 81       	ldd	r25, Y+6	; 0x06
    37fa:	e8 81       	ld	r30, Y
    37fc:	f9 81       	ldd	r31, Y+1	; 0x01
    37fe:	86 a3       	std	Z+38, r24	; 0x26
    3800:	97 a3       	std	Z+39, r25	; 0x27
    3802:	8b 81       	ldd	r24, Y+3	; 0x03
    3804:	e8 81       	ld	r30, Y
    3806:	f9 81       	ldd	r31, Y+1	; 0x01
    3808:	91 81       	ldd	r25, Z+1	; 0x01
    380a:	e6 fd       	sbrc	r30, 6
    380c:	03 c0       	rjmp	.+6      	; 0x3814 <pwm_start+0x78>
    380e:	98 2b       	or	r25, r24
    3810:	91 83       	std	Z+1, r25	; 0x01
    3812:	03 c0       	rjmp	.+6      	; 0x381a <pwm_start+0x7e>
    3814:	80 73       	andi	r24, 0x30	; 48
    3816:	89 2b       	or	r24, r25
    3818:	81 83       	std	Z+1, r24	; 0x01
    381a:	e8 81       	ld	r30, Y
    381c:	f9 81       	ldd	r31, Y+1	; 0x01
    381e:	80 81       	ld	r24, Z
    3820:	80 7f       	andi	r24, 0xF0	; 240
    3822:	9c 81       	ldd	r25, Y+4	; 0x04
    3824:	89 2b       	or	r24, r25
    3826:	80 83       	st	Z, r24
    3828:	df 91       	pop	r29
    382a:	cf 91       	pop	r28
    382c:	08 95       	ret

0000382e <__portable_avr_delay_cycles>:
    382e:	61 50       	subi	r22, 0x01	; 1
    3830:	71 09       	sbc	r23, r1
    3832:	81 09       	sbc	r24, r1
    3834:	91 09       	sbc	r25, r1
    3836:	d9 f7       	brne	.-10     	; 0x382e <__portable_avr_delay_cycles>
    3838:	08 95       	ret

0000383a <setupBluetoothFast>:
    383a:	cf 93       	push	r28
    383c:	df 93       	push	r29
    383e:	cd b7       	in	r28, 0x3d	; 61
    3840:	de b7       	in	r29, 0x3e	; 62
    3842:	27 97       	sbiw	r28, 0x07	; 7
    3844:	cd bf       	out	0x3d, r28	; 61
    3846:	de bf       	out	0x3e, r29	; 62
    3848:	87 e0       	ldi	r24, 0x07	; 7
    384a:	e6 e6       	ldi	r30, 0x66	; 102
    384c:	f0 e2       	ldi	r31, 0x20	; 32
    384e:	de 01       	movw	r26, r28
    3850:	11 96       	adiw	r26, 0x01	; 1
    3852:	01 90       	ld	r0, Z+
    3854:	0d 92       	st	X+, r0
    3856:	8a 95       	dec	r24
    3858:	e1 f7       	brne	.-8      	; 0x3852 <setupBluetoothFast+0x18>
    385a:	60 e1       	ldi	r22, 0x10	; 16
    385c:	85 e0       	ldi	r24, 0x05	; 5
    385e:	0e 94 02 12 	call	0x2404	; 0x2404 <sysclk_enable_module>
    3862:	84 e7       	ldi	r24, 0x74	; 116
    3864:	98 e2       	ldi	r25, 0x28	; 40
    3866:	0e 94 6d 0e 	call	0x1cda	; 0x1cda <sendDBGString>
    386a:	0e 94 b1 11 	call	0x2362	; 0x2362 <WatchdogPet>
    386e:	be 01       	movw	r22, r28
    3870:	6f 5f       	subi	r22, 0xFF	; 255
    3872:	7f 4f       	sbci	r23, 0xFF	; 255
    3874:	80 ea       	ldi	r24, 0xA0	; 160
    3876:	9a e0       	ldi	r25, 0x0A	; 10
    3878:	2f de       	rcall	.-930    	; 0x34d8 <usart_init_rs232>
    387a:	88 23       	and	r24, r24
    387c:	39 f0       	breq	.+14     	; 0x388c <setupBluetoothFast+0x52>
    387e:	ee ed       	ldi	r30, 0xDE	; 222
    3880:	f1 e0       	ldi	r31, 0x01	; 1
    3882:	84 91       	lpm	r24, Z
    3884:	90 e0       	ldi	r25, 0x00	; 0
    3886:	0e 94 78 0e 	call	0x1cf0	; 0x1cf0 <sendDBGLine>
    388a:	06 c0       	rjmp	.+12     	; 0x3898 <setupBluetoothFast+0x5e>
    388c:	ea ed       	ldi	r30, 0xDA	; 218
    388e:	f1 e0       	ldi	r31, 0x01	; 1
    3890:	84 91       	lpm	r24, Z
    3892:	90 e0       	ldi	r25, 0x00	; 0
    3894:	0e 94 78 0e 	call	0x1cf0	; 0x1cf0 <sendDBGLine>
    3898:	27 96       	adiw	r28, 0x07	; 7
    389a:	cd bf       	out	0x3d, r28	; 61
    389c:	de bf       	out	0x3e, r29	; 62
    389e:	df 91       	pop	r29
    38a0:	cf 91       	pop	r28
    38a2:	08 95       	ret

000038a4 <hardwareflowcontrol>:
    38a4:	cf 93       	push	r28
    38a6:	df 93       	push	r29
    38a8:	ec 01       	movw	r28, r24
    38aa:	80 91 88 06 	lds	r24, 0x0688
    38ae:	84 fd       	sbrc	r24, 4
    38b0:	13 c0       	rjmp	.+38     	; 0x38d8 <hardwareflowcontrol+0x34>
    38b2:	82 e0       	ldi	r24, 0x02	; 2
    38b4:	80 93 85 06 	sts	0x0685, r24
    38b8:	0a c0       	rjmp	.+20     	; 0x38ce <hardwareflowcontrol+0x2a>
    38ba:	80 91 88 06 	lds	r24, 0x0688
    38be:	84 fd       	sbrc	r24, 4
    38c0:	0b c0       	rjmp	.+22     	; 0x38d8 <hardwareflowcontrol+0x34>
    38c2:	21 97       	sbiw	r28, 0x01	; 1
    38c4:	65 ed       	ldi	r22, 0xD5	; 213
    38c6:	74 e1       	ldi	r23, 0x14	; 20
    38c8:	80 e0       	ldi	r24, 0x00	; 0
    38ca:	90 e0       	ldi	r25, 0x00	; 0
    38cc:	b0 df       	rcall	.-160    	; 0x382e <__portable_avr_delay_cycles>
    38ce:	1c 16       	cp	r1, r28
    38d0:	1d 06       	cpc	r1, r29
    38d2:	9c f3       	brlt	.-26     	; 0x38ba <hardwareflowcontrol+0x16>
    38d4:	80 e0       	ldi	r24, 0x00	; 0
    38d6:	01 c0       	rjmp	.+2      	; 0x38da <hardwareflowcontrol+0x36>
    38d8:	81 e0       	ldi	r24, 0x01	; 1
    38da:	df 91       	pop	r29
    38dc:	cf 91       	pop	r28
    38de:	08 95       	ret

000038e0 <turnBTOn>:
    38e0:	cf 93       	push	r28
    38e2:	df 93       	push	r29
    38e4:	83 e8       	ldi	r24, 0x83	; 131
    38e6:	98 e2       	ldi	r25, 0x28	; 40
    38e8:	0e 94 78 0e 	call	0x1cf0	; 0x1cf0 <sendDBGLine>
    38ec:	c0 e8       	ldi	r28, 0x80	; 128
    38ee:	d6 e0       	ldi	r29, 0x06	; 6
    38f0:	80 e2       	ldi	r24, 0x20	; 32
    38f2:	8d 83       	std	Y+5, r24	; 0x05
    38f4:	65 e5       	ldi	r22, 0x55	; 85
    38f6:	73 e2       	ldi	r23, 0x23	; 35
    38f8:	88 e0       	ldi	r24, 0x08	; 8
    38fa:	90 e0       	ldi	r25, 0x00	; 0
    38fc:	98 df       	rcall	.-208    	; 0x382e <__portable_avr_delay_cycles>
    38fe:	81 e0       	ldi	r24, 0x01	; 1
    3900:	8e 83       	std	Y+6, r24	; 0x06
    3902:	80 e8       	ldi	r24, 0x80	; 128
    3904:	9e e3       	ldi	r25, 0x3E	; 62
    3906:	ce df       	rcall	.-100    	; 0x38a4 <hardwareflowcontrol>
    3908:	80 93 d4 2b 	sts	0x2BD4, r24
    390c:	df 91       	pop	r29
    390e:	cf 91       	pop	r28
    3910:	08 95       	ret

00003912 <bt_exitBypass>:
    3912:	1f 93       	push	r17
    3914:	cf 93       	push	r28
    3916:	df 93       	push	r29
    3918:	c0 ea       	ldi	r28, 0xA0	; 160
    391a:	d6 e0       	ldi	r29, 0x06	; 6
    391c:	11 e0       	ldi	r17, 0x01	; 1
    391e:	1e 83       	std	Y+6, r17	; 0x06
    3920:	df df       	rcall	.-66     	; 0x38e0 <turnBTOn>
    3922:	60 e0       	ldi	r22, 0x00	; 0
    3924:	7a e6       	ldi	r23, 0x6A	; 106
    3926:	88 e1       	ldi	r24, 0x18	; 24
    3928:	90 e0       	ldi	r25, 0x00	; 0
    392a:	81 df       	rcall	.-254    	; 0x382e <__portable_avr_delay_cycles>
    392c:	1d 83       	std	Y+5, r17	; 0x05
    392e:	65 e5       	ldi	r22, 0x55	; 85
    3930:	73 e2       	ldi	r23, 0x23	; 35
    3932:	88 e0       	ldi	r24, 0x08	; 8
    3934:	90 e0       	ldi	r25, 0x00	; 0
    3936:	df 91       	pop	r29
    3938:	cf 91       	pop	r28
    393a:	1f 91       	pop	r17
    393c:	78 cf       	rjmp	.-272    	; 0x382e <__portable_avr_delay_cycles>

0000393e <sendBTChar>:
    393e:	cf 93       	push	r28
    3940:	df 93       	push	r29
    3942:	1f 92       	push	r1
    3944:	cd b7       	in	r28, 0x3d	; 61
    3946:	de b7       	in	r29, 0x3e	; 62
    3948:	68 2f       	mov	r22, r24
    394a:	88 ee       	ldi	r24, 0xE8	; 232
    394c:	93 e0       	ldi	r25, 0x03	; 3
    394e:	69 83       	std	Y+1, r22	; 0x01
    3950:	a9 df       	rcall	.-174    	; 0x38a4 <hardwareflowcontrol>
    3952:	69 81       	ldd	r22, Y+1	; 0x01
    3954:	88 23       	and	r24, r24
    3956:	31 f0       	breq	.+12     	; 0x3964 <sendBTChar+0x26>
    3958:	80 ea       	ldi	r24, 0xA0	; 160
    395a:	9a e0       	ldi	r25, 0x0A	; 10
    395c:	0f 90       	pop	r0
    395e:	df 91       	pop	r29
    3960:	cf 91       	pop	r28
    3962:	d5 cc       	rjmp	.-1622   	; 0x330e <usart_putchar>
    3964:	0f 90       	pop	r0
    3966:	df 91       	pop	r29
    3968:	cf 91       	pop	r28
    396a:	08 95       	ret

0000396c <sendBTString>:
    396c:	cf 93       	push	r28
    396e:	df 93       	push	r29
    3970:	ec 01       	movw	r28, r24
    3972:	01 c0       	rjmp	.+2      	; 0x3976 <sendBTString+0xa>
    3974:	e4 df       	rcall	.-56     	; 0x393e <sendBTChar>
    3976:	89 91       	ld	r24, Y+
    3978:	81 11       	cpse	r24, r1
    397a:	fc cf       	rjmp	.-8      	; 0x3974 <sendBTString+0x8>
    397c:	df 91       	pop	r29
    397e:	cf 91       	pop	r28
    3980:	08 95       	ret

00003982 <sendBTCmd>:
    3982:	cf 93       	push	r28
    3984:	df 93       	push	r29
    3986:	ec 01       	movw	r28, r24
    3988:	88 ee       	ldi	r24, 0xE8	; 232
    398a:	93 e0       	ldi	r25, 0x03	; 3
    398c:	8b df       	rcall	.-234    	; 0x38a4 <hardwareflowcontrol>
    398e:	88 23       	and	r24, r24
    3990:	31 f0       	breq	.+12     	; 0x399e <sendBTCmd+0x1c>
    3992:	ce 01       	movw	r24, r28
    3994:	eb df       	rcall	.-42     	; 0x396c <sendBTString>
    3996:	8d e0       	ldi	r24, 0x0D	; 13
    3998:	d2 df       	rcall	.-92     	; 0x393e <sendBTChar>
    399a:	8a e0       	ldi	r24, 0x0A	; 10
    399c:	d0 df       	rcall	.-96     	; 0x393e <sendBTChar>
    399e:	80 e0       	ldi	r24, 0x00	; 0
    39a0:	df 91       	pop	r29
    39a2:	cf 91       	pop	r28
    39a4:	08 95       	ret

000039a6 <initBTComms>:
    39a6:	88 e8       	ldi	r24, 0x88	; 136
    39a8:	98 e2       	ldi	r25, 0x28	; 40
    39aa:	0e 94 78 0e 	call	0x1cf0	; 0x1cf0 <sendDBGLine>
    39ae:	a8 95       	wdr
    39b0:	80 ed       	ldi	r24, 0xD0	; 208
    39b2:	97 e0       	ldi	r25, 0x07	; 7
    39b4:	77 df       	rcall	.-274    	; 0x38a4 <hardwareflowcontrol>
    39b6:	8f e8       	ldi	r24, 0x8F	; 143
    39b8:	98 e2       	ldi	r25, 0x28	; 40
    39ba:	e3 df       	rcall	.-58     	; 0x3982 <sendBTCmd>
    39bc:	a8 95       	wdr
    39be:	88 ee       	ldi	r24, 0xE8	; 232
    39c0:	93 e0       	ldi	r25, 0x03	; 3
    39c2:	70 df       	rcall	.-288    	; 0x38a4 <hardwareflowcontrol>
    39c4:	88 e9       	ldi	r24, 0x98	; 152
    39c6:	98 e2       	ldi	r25, 0x28	; 40
    39c8:	dc df       	rcall	.-72     	; 0x3982 <sendBTCmd>
    39ca:	a8 95       	wdr
    39cc:	80 e7       	ldi	r24, 0x70	; 112
    39ce:	97 e1       	ldi	r25, 0x17	; 23
    39d0:	69 cf       	rjmp	.-302    	; 0x38a4 <hardwareflowcontrol>

000039d2 <turnBTOff>:
    39d2:	87 ea       	ldi	r24, 0xA7	; 167
    39d4:	98 e2       	ldi	r25, 0x28	; 40
    39d6:	0e 94 78 0e 	call	0x1cf0	; 0x1cf0 <sendDBGLine>
    39da:	80 ed       	ldi	r24, 0xD0	; 208
    39dc:	97 e0       	ldi	r25, 0x07	; 7
    39de:	62 df       	rcall	.-316    	; 0x38a4 <hardwareflowcontrol>
    39e0:	8d ea       	ldi	r24, 0xAD	; 173
    39e2:	98 e2       	ldi	r25, 0x28	; 40
    39e4:	ce df       	rcall	.-100    	; 0x3982 <sendBTCmd>
    39e6:	e0 e8       	ldi	r30, 0x80	; 128
    39e8:	f6 e0       	ldi	r31, 0x06	; 6
    39ea:	81 e0       	ldi	r24, 0x01	; 1
    39ec:	85 83       	std	Z+5, r24	; 0x05
    39ee:	80 e2       	ldi	r24, 0x20	; 32
    39f0:	86 83       	std	Z+6, r24	; 0x06
    39f2:	08 95       	ret

000039f4 <btFirstRun>:
    39f4:	80 ed       	ldi	r24, 0xD0	; 208
    39f6:	97 e0       	ldi	r25, 0x07	; 7
    39f8:	55 df       	rcall	.-342    	; 0x38a4 <hardwareflowcontrol>
    39fa:	83 eb       	ldi	r24, 0xB3	; 179
    39fc:	98 e2       	ldi	r25, 0x28	; 40
    39fe:	c1 df       	rcall	.-126    	; 0x3982 <sendBTCmd>
    3a00:	86 ec       	ldi	r24, 0xC6	; 198
    3a02:	98 e2       	ldi	r25, 0x28	; 40
    3a04:	be df       	rcall	.-132    	; 0x3982 <sendBTCmd>
    3a06:	88 ee       	ldi	r24, 0xE8	; 232
    3a08:	93 e0       	ldi	r25, 0x03	; 3
    3a0a:	4c df       	rcall	.-360    	; 0x38a4 <hardwareflowcontrol>
    3a0c:	8d ed       	ldi	r24, 0xDD	; 221
    3a0e:	98 e2       	ldi	r25, 0x28	; 40
    3a10:	b8 df       	rcall	.-144    	; 0x3982 <sendBTCmd>
    3a12:	65 e5       	ldi	r22, 0x55	; 85
    3a14:	73 e2       	ldi	r23, 0x23	; 35
    3a16:	88 e0       	ldi	r24, 0x08	; 8
    3a18:	90 e0       	ldi	r25, 0x00	; 0
    3a1a:	09 df       	rcall	.-494    	; 0x382e <__portable_avr_delay_cycles>
    3a1c:	da df       	rcall	.-76     	; 0x39d2 <turnBTOff>
    3a1e:	6a ea       	ldi	r22, 0xAA	; 170
    3a20:	71 e1       	ldi	r23, 0x11	; 17
    3a22:	84 e0       	ldi	r24, 0x04	; 4
    3a24:	90 e0       	ldi	r25, 0x00	; 0
    3a26:	03 df       	rcall	.-506    	; 0x382e <__portable_avr_delay_cycles>
    3a28:	5b cf       	rjmp	.-330    	; 0x38e0 <turnBTOn>

00003a2a <btFactoryReset>:
    3a2a:	1f 93       	push	r17
    3a2c:	cf 93       	push	r28
    3a2e:	df 93       	push	r29
    3a30:	d0 df       	rcall	.-96     	; 0x39d2 <turnBTOff>
    3a32:	c0 ea       	ldi	r28, 0xA0	; 160
    3a34:	d6 e0       	ldi	r29, 0x06	; 6
    3a36:	11 e0       	ldi	r17, 0x01	; 1
    3a38:	1e 83       	std	Y+6, r17	; 0x06
    3a3a:	52 df       	rcall	.-348    	; 0x38e0 <turnBTOn>
    3a3c:	6a ea       	ldi	r22, 0xAA	; 170
    3a3e:	7b e7       	ldi	r23, 0x7B	; 123
    3a40:	8c e1       	ldi	r24, 0x1C	; 28
    3a42:	90 e0       	ldi	r25, 0x00	; 0
    3a44:	f4 de       	rcall	.-536    	; 0x382e <__portable_avr_delay_cycles>
    3a46:	1d 83       	std	Y+5, r17	; 0x05
    3a48:	df 91       	pop	r29
    3a4a:	cf 91       	pop	r28
    3a4c:	1f 91       	pop	r17
    3a4e:	08 95       	ret

00003a50 <btIsConnected>:
    3a50:	e0 e8       	ldi	r30, 0x80	; 128
    3a52:	f6 e0       	ldi	r31, 0x06	; 6
    3a54:	80 85       	ldd	r24, Z+8	; 0x08
    3a56:	86 fb       	bst	r24, 6
    3a58:	88 27       	eor	r24, r24
    3a5a:	80 f9       	bld	r24, 0
    3a5c:	91 e0       	ldi	r25, 0x01	; 1
    3a5e:	89 27       	eor	r24, r25
    3a60:	08 95       	ret

00003a62 <btClearAutoConnectList>:
    3a62:	88 ee       	ldi	r24, 0xE8	; 232
    3a64:	93 e0       	ldi	r25, 0x03	; 3
    3a66:	1e df       	rcall	.-452    	; 0x38a4 <hardwareflowcontrol>
    3a68:	85 ef       	ldi	r24, 0xF5	; 245
    3a6a:	98 e2       	ldi	r25, 0x28	; 40
    3a6c:	8a cf       	rjmp	.-236    	; 0x3982 <sendBTCmd>

00003a6e <BluetoothKeyboardMode>:
    3a6e:	8b ef       	ldi	r24, 0xFB	; 251
    3a70:	98 e2       	ldi	r25, 0x28	; 40
    3a72:	87 cf       	rjmp	.-242    	; 0x3982 <sendBTCmd>

00003a74 <BluetoothComboMode>:
    3a74:	85 e1       	ldi	r24, 0x15	; 21
    3a76:	99 e2       	ldi	r25, 0x29	; 41
    3a78:	84 cf       	rjmp	.-248    	; 0x3982 <sendBTCmd>

00003a7a <BluetoothGamePadMode>:
    3a7a:	82 e2       	ldi	r24, 0x22	; 34
    3a7c:	99 e2       	ldi	r25, 0x29	; 41
    3a7e:	81 cf       	rjmp	.-254    	; 0x3982 <sendBTCmd>

00003a80 <BluetoothJoystickMode>:
    3a80:	8f e2       	ldi	r24, 0x2F	; 47
    3a82:	99 e2       	ldi	r25, 0x29	; 41
    3a84:	7e cf       	rjmp	.-260    	; 0x3982 <sendBTCmd>

00003a86 <__portable_avr_delay_cycles>:
    3a86:	61 50       	subi	r22, 0x01	; 1
    3a88:	71 09       	sbc	r23, r1
    3a8a:	81 09       	sbc	r24, r1
    3a8c:	91 09       	sbc	r25, r1
    3a8e:	d9 f7       	brne	.-10     	; 0x3a86 <__portable_avr_delay_cycles>
    3a90:	08 95       	ret

00003a92 <sysTickCallback>:
    3a92:	0e 94 a0 10 	call	0x2140	; 0x2140 <clearSysTickFlag>
    3a96:	0e 94 35 10 	call	0x206a	; 0x206a <tickSystemTime>
    3a9a:	80 91 db 2b 	lds	r24, 0x2BDB
    3a9e:	90 91 dc 2b 	lds	r25, 0x2BDC
    3aa2:	01 96       	adiw	r24, 0x01	; 1
    3aa4:	88 3e       	cpi	r24, 0xE8	; 232
    3aa6:	23 e0       	ldi	r18, 0x03	; 3
    3aa8:	92 07       	cpc	r25, r18
    3aaa:	28 f4       	brcc	.+10     	; 0x3ab6 <sysTickCallback+0x24>
    3aac:	80 93 db 2b 	sts	0x2BDB, r24
    3ab0:	90 93 dc 2b 	sts	0x2BDC, r25
    3ab4:	08 95       	ret
    3ab6:	10 92 db 2b 	sts	0x2BDB, r1
    3aba:	10 92 dc 2b 	sts	0x2BDC, r1
    3abe:	0c 94 b6 11 	jmp	0x236c	; 0x236c <WatchdogValidate>

00003ac2 <maintainControllerStatus>:
    3ac2:	ff 92       	push	r15
    3ac4:	0f 93       	push	r16
    3ac6:	1f 93       	push	r17
    3ac8:	cf 93       	push	r28
    3aca:	df 93       	push	r29
    3acc:	18 2f       	mov	r17, r24
    3ace:	c0 df       	rcall	.-128    	; 0x3a50 <btIsConnected>
    3ad0:	f8 2e       	mov	r15, r24
    3ad2:	80 91 48 06 	lds	r24, 0x0648
    3ad6:	80 fd       	sbrc	r24, 0
    3ad8:	02 c0       	rjmp	.+4      	; 0x3ade <maintainControllerStatus+0x1c>
    3ada:	03 e0       	ldi	r16, 0x03	; 3
    3adc:	01 c0       	rjmp	.+2      	; 0x3ae0 <maintainControllerStatus+0x1e>
    3ade:	00 e0       	ldi	r16, 0x00	; 0
    3ae0:	83 e0       	ldi	r24, 0x03	; 3
    3ae2:	0e 94 36 01 	call	0x26c	; 0x26c <sampleAnalogChannel>
    3ae6:	ec 01       	movw	r28, r24
    3ae8:	40 e0       	ldi	r20, 0x00	; 0
    3aea:	60 e0       	ldi	r22, 0x00	; 0
    3aec:	80 e0       	ldi	r24, 0x00	; 0
    3aee:	0e 94 11 10 	call	0x2022	; 0x2022 <setLEDValue>
    3af2:	ff 20       	and	r15, r15
    3af4:	a1 f0       	breq	.+40     	; 0x3b1e <maintainControllerStatus+0x5c>
    3af6:	01 11       	cpse	r16, r1
    3af8:	07 c0       	rjmp	.+14     	; 0x3b08 <maintainControllerStatus+0x46>
    3afa:	c0 3a       	cpi	r28, 0xA0	; 160
    3afc:	df 40       	sbci	r29, 0x0F	; 15
    3afe:	10 f4       	brcc	.+4      	; 0x3b04 <maintainControllerStatus+0x42>
    3b00:	81 e0       	ldi	r24, 0x01	; 1
    3b02:	06 c0       	rjmp	.+12     	; 0x3b10 <maintainControllerStatus+0x4e>
    3b04:	81 e0       	ldi	r24, 0x01	; 1
    3b06:	0c c0       	rjmp	.+24     	; 0x3b20 <maintainControllerStatus+0x5e>
    3b08:	cc 3a       	cpi	r28, 0xAC	; 172
    3b0a:	dd 40       	sbci	r29, 0x0D	; 13
    3b0c:	d8 f7       	brcc	.-10     	; 0x3b04 <maintainControllerStatus+0x42>
    3b0e:	81 2f       	mov	r24, r17
    3b10:	df 91       	pop	r29
    3b12:	cf 91       	pop	r28
    3b14:	1f 91       	pop	r17
    3b16:	0f 91       	pop	r16
    3b18:	ff 90       	pop	r15
    3b1a:	0c 94 f3 0f 	jmp	0x1fe6	; 0x1fe6 <setGreenLEDValue>
    3b1e:	81 2f       	mov	r24, r17
    3b20:	df 91       	pop	r29
    3b22:	cf 91       	pop	r28
    3b24:	1f 91       	pop	r17
    3b26:	0f 91       	pop	r16
    3b28:	ff 90       	pop	r15
    3b2a:	0c 94 02 10 	jmp	0x2004	; 0x2004 <setBlueLEDValue>

00003b2e <selectHandlers>:
    3b2e:	80 91 75 2c 	lds	r24, 0x2C75
    3b32:	82 30       	cpi	r24, 0x02	; 2
    3b34:	09 f4       	brne	.+2      	; 0x3b38 <selectHandlers+0xa>
    3b36:	57 c0       	rjmp	.+174    	; 0x3be6 <selectHandlers+0xb8>
    3b38:	30 f4       	brcc	.+12     	; 0x3b46 <selectHandlers+0x18>
    3b3a:	88 23       	and	r24, r24
    3b3c:	71 f1       	breq	.+92     	; 0x3b9a <selectHandlers+0x6c>
    3b3e:	81 30       	cpi	r24, 0x01	; 1
    3b40:	09 f0       	breq	.+2      	; 0x3b44 <selectHandlers+0x16>
    3b42:	64 c0       	rjmp	.+200    	; 0x3c0c <selectHandlers+0xde>
    3b44:	19 c0       	rjmp	.+50     	; 0x3b78 <selectHandlers+0x4a>
    3b46:	84 30       	cpi	r24, 0x04	; 4
    3b48:	21 f0       	breq	.+8      	; 0x3b52 <selectHandlers+0x24>
    3b4a:	87 30       	cpi	r24, 0x07	; 7
    3b4c:	09 f0       	breq	.+2      	; 0x3b50 <selectHandlers+0x22>
    3b4e:	5e c0       	rjmp	.+188    	; 0x3c0c <selectHandlers+0xde>
    3b50:	37 c0       	rjmp	.+110    	; 0x3bc0 <selectHandlers+0x92>
    3b52:	88 ea       	ldi	r24, 0xA8	; 168
    3b54:	9b e0       	ldi	r25, 0x0B	; 11
    3b56:	80 93 d5 2b 	sts	0x2BD5, r24
    3b5a:	90 93 d6 2b 	sts	0x2BD6, r25
    3b5e:	87 e6       	ldi	r24, 0x67	; 103
    3b60:	9e e0       	ldi	r25, 0x0E	; 14
    3b62:	80 93 d7 2b 	sts	0x2BD7, r24
    3b66:	90 93 d8 2b 	sts	0x2BD8, r25
    3b6a:	8c e1       	ldi	r24, 0x1C	; 28
    3b6c:	9d e0       	ldi	r25, 0x0D	; 13
    3b6e:	80 93 d9 2b 	sts	0x2BD9, r24
    3b72:	90 93 da 2b 	sts	0x2BDA, r25
    3b76:	08 95       	ret
    3b78:	82 e9       	ldi	r24, 0x92	; 146
    3b7a:	93 e0       	ldi	r25, 0x03	; 3
    3b7c:	80 93 d5 2b 	sts	0x2BD5, r24
    3b80:	90 93 d6 2b 	sts	0x2BD6, r25
    3b84:	88 e9       	ldi	r24, 0x98	; 152
    3b86:	93 e0       	ldi	r25, 0x03	; 3
    3b88:	80 93 d7 2b 	sts	0x2BD7, r24
    3b8c:	90 93 d8 2b 	sts	0x2BD8, r25
    3b90:	10 92 d9 2b 	sts	0x2BD9, r1
    3b94:	10 92 da 2b 	sts	0x2BDA, r1
    3b98:	08 95       	ret
    3b9a:	8a ea       	ldi	r24, 0xAA	; 170
    3b9c:	99 e0       	ldi	r25, 0x09	; 9
    3b9e:	80 93 d5 2b 	sts	0x2BD5, r24
    3ba2:	90 93 d6 2b 	sts	0x2BD6, r25
    3ba6:	87 ea       	ldi	r24, 0xA7	; 167
    3ba8:	9b e0       	ldi	r25, 0x0B	; 11
    3baa:	80 93 d7 2b 	sts	0x2BD7, r24
    3bae:	90 93 d8 2b 	sts	0x2BD8, r25
    3bb2:	8d e0       	ldi	r24, 0x0D	; 13
    3bb4:	9b e0       	ldi	r25, 0x0B	; 11
    3bb6:	80 93 d9 2b 	sts	0x2BD9, r24
    3bba:	90 93 da 2b 	sts	0x2BDA, r25
    3bbe:	08 95       	ret
    3bc0:	8d e6       	ldi	r24, 0x6D	; 109
    3bc2:	98 e0       	ldi	r25, 0x08	; 8
    3bc4:	80 93 d5 2b 	sts	0x2BD5, r24
    3bc8:	90 93 d6 2b 	sts	0x2BD6, r25
    3bcc:	82 e6       	ldi	r24, 0x62	; 98
    3bce:	99 e0       	ldi	r25, 0x09	; 9
    3bd0:	80 93 d7 2b 	sts	0x2BD7, r24
    3bd4:	90 93 d8 2b 	sts	0x2BD8, r25
    3bd8:	80 ee       	ldi	r24, 0xE0	; 224
    3bda:	98 e0       	ldi	r25, 0x08	; 8
    3bdc:	80 93 d9 2b 	sts	0x2BD9, r24
    3be0:	90 93 da 2b 	sts	0x2BDA, r25
    3be4:	08 95       	ret
    3be6:	8c e4       	ldi	r24, 0x4C	; 76
    3be8:	97 e0       	ldi	r25, 0x07	; 7
    3bea:	80 93 d5 2b 	sts	0x2BD5, r24
    3bee:	90 93 d6 2b 	sts	0x2BD6, r25
    3bf2:	85 e2       	ldi	r24, 0x25	; 37
    3bf4:	98 e0       	ldi	r25, 0x08	; 8
    3bf6:	80 93 d7 2b 	sts	0x2BD7, r24
    3bfa:	90 93 d8 2b 	sts	0x2BD8, r25
    3bfe:	8c eb       	ldi	r24, 0xBC	; 188
    3c00:	97 e0       	ldi	r25, 0x07	; 7
    3c02:	80 93 d9 2b 	sts	0x2BD9, r24
    3c06:	90 93 da 2b 	sts	0x2BDA, r25
    3c0a:	08 95       	ret
    3c0c:	10 92 d5 2b 	sts	0x2BD5, r1
    3c10:	10 92 d6 2b 	sts	0x2BD6, r1
    3c14:	10 92 d7 2b 	sts	0x2BD7, r1
    3c18:	10 92 d8 2b 	sts	0x2BD8, r1
    3c1c:	10 92 d9 2b 	sts	0x2BD9, r1
    3c20:	10 92 da 2b 	sts	0x2BDA, r1
    3c24:	08 95       	ret

00003c26 <SetupStartPinExternalInterrupt>:
    3c26:	9f b7       	in	r25, 0x3f	; 63
    3c28:	f8 94       	cli
    3c2a:	84 e0       	ldi	r24, 0x04	; 4
    3c2c:	80 93 aa 06 	sts	0x06AA, r24
    3c30:	2f b7       	in	r18, 0x3f	; 63
    3c32:	f8 94       	cli
    3c34:	80 93 b0 00 	sts	0x00B0, r24
    3c38:	e0 ea       	ldi	r30, 0xA0	; 160
    3c3a:	f6 e0       	ldi	r31, 0x06	; 6
    3c3c:	80 89       	ldd	r24, Z+16	; 0x10
    3c3e:	88 7f       	andi	r24, 0xF8	; 248
    3c40:	80 8b       	std	Z+16, r24	; 0x10
    3c42:	80 89       	ldd	r24, Z+16	; 0x10
    3c44:	81 60       	ori	r24, 0x01	; 1
    3c46:	80 8b       	std	Z+16, r24	; 0x10
    3c48:	2f bf       	out	0x3f, r18	; 63
    3c4a:	82 e0       	ldi	r24, 0x02	; 2
    3c4c:	80 93 a9 06 	sts	0x06A9, r24
    3c50:	9f bf       	out	0x3f, r25	; 63
    3c52:	08 95       	ret

00003c54 <main>:
    3c54:	cf 93       	push	r28
    3c56:	df 93       	push	r29
    3c58:	cd b7       	in	r28, 0x3d	; 61
    3c5a:	de b7       	in	r29, 0x3e	; 62
    3c5c:	ed 97       	sbiw	r28, 0x3d	; 61
    3c5e:	cd bf       	out	0x3d, r28	; 61
    3c60:	de bf       	out	0x3e, r29	; 62
    3c62:	10 92 74 2c 	sts	0x2C74, r1
    3c66:	0e 94 da 11 	call	0x23b4	; 0x23b4 <sysclk_init>
    3c6a:	0e 94 6a 01 	call	0x2d4	; 0x2d4 <board_init>
    3c6e:	6a e2       	ldi	r22, 0x2A	; 42
    3c70:	78 e6       	ldi	r23, 0x68	; 104
    3c72:	80 e0       	ldi	r24, 0x00	; 0
    3c74:	90 e0       	ldi	r25, 0x00	; 0
    3c76:	07 df       	rcall	.-498    	; 0x3a86 <__portable_avr_delay_cycles>
    3c78:	80 e0       	ldi	r24, 0x00	; 0
    3c7a:	0e 94 c2 0f 	call	0x1f84	; 0x1f84 <setupLEDs>
    3c7e:	41 e0       	ldi	r20, 0x01	; 1
    3c80:	60 e0       	ldi	r22, 0x00	; 0
    3c82:	80 e0       	ldi	r24, 0x00	; 0
    3c84:	0e 94 11 10 	call	0x2022	; 0x2022 <setLEDValue>
    3c88:	88 e0       	ldi	r24, 0x08	; 8
    3c8a:	0e 94 6c 03 	call	0x6d8	; 0x6d8 <buttonActivated>
    3c8e:	81 11       	cpse	r24, r1
    3c90:	fb cf       	rjmp	.-10     	; 0x3c88 <main+0x34>
    3c92:	b0 de       	rcall	.-672    	; 0x39f4 <btFirstRun>
    3c94:	25 de       	rcall	.-950    	; 0x38e0 <turnBTOn>
    3c96:	d1 dd       	rcall	.-1118   	; 0x383a <setupBluetoothFast>
    3c98:	0e 94 b6 0e 	call	0x1d6c	; 0x1d6c <IsTestMode>
    3c9c:	81 11       	cpse	r24, r1
    3c9e:	0e 94 f1 0e 	call	0x1de2	; 0x1de2 <ExecuteTest>
    3ca2:	0e 94 ac 11 	call	0x2358	; 0x2358 <WatchdogInit>
    3ca6:	89 e4       	ldi	r24, 0x49	; 73
    3ca8:	9d e1       	ldi	r25, 0x1D	; 29
    3caa:	0e 94 a6 10 	call	0x214c	; 0x214c <setupSysTick>
    3cae:	0e 94 7d 0e 	call	0x1cfa	; 0x1cfa <setupDbg>
    3cb2:	0e 94 cf 10 	call	0x219e	; 0x219e <setupUsb>
    3cb6:	0e 94 15 01 	call	0x22a	; 0x22a <setupAnalog>
    3cba:	0e 94 66 01 	call	0x2cc	; 0x2cc <enableAnalog>
    3cbe:	80 91 38 20 	lds	r24, 0x2038
    3cc2:	0e 94 36 01 	call	0x26c	; 0x26c <sampleAnalogChannel>
    3cc6:	80 93 42 20 	sts	0x2042, r24
    3cca:	90 93 43 20 	sts	0x2043, r25
    3cce:	80 93 3a 20 	sts	0x203A, r24
    3cd2:	90 93 3b 20 	sts	0x203B, r25
    3cd6:	80 93 3e 20 	sts	0x203E, r24
    3cda:	90 93 3f 20 	sts	0x203F, r25
    3cde:	80 91 39 20 	lds	r24, 0x2039
    3ce2:	0e 94 36 01 	call	0x26c	; 0x26c <sampleAnalogChannel>
    3ce6:	80 93 44 20 	sts	0x2044, r24
    3cea:	90 93 45 20 	sts	0x2045, r25
    3cee:	80 93 3c 20 	sts	0x203C, r24
    3cf2:	90 93 3d 20 	sts	0x203D, r25
    3cf6:	80 93 40 20 	sts	0x2040, r24
    3cfa:	90 93 41 20 	sts	0x2041, r25
    3cfe:	80 91 46 20 	lds	r24, 0x2046
    3d02:	0e 94 36 01 	call	0x26c	; 0x26c <sampleAnalogChannel>
    3d06:	80 93 50 20 	sts	0x2050, r24
    3d0a:	90 93 51 20 	sts	0x2051, r25
    3d0e:	80 93 48 20 	sts	0x2048, r24
    3d12:	90 93 49 20 	sts	0x2049, r25
    3d16:	80 93 4c 20 	sts	0x204C, r24
    3d1a:	90 93 4d 20 	sts	0x204D, r25
    3d1e:	80 91 47 20 	lds	r24, 0x2047
    3d22:	0e 94 36 01 	call	0x26c	; 0x26c <sampleAnalogChannel>
    3d26:	80 93 52 20 	sts	0x2052, r24
    3d2a:	90 93 53 20 	sts	0x2053, r25
    3d2e:	80 93 4a 20 	sts	0x204A, r24
    3d32:	90 93 4b 20 	sts	0x204B, r25
    3d36:	80 93 4e 20 	sts	0x204E, r24
    3d3a:	90 93 4f 20 	sts	0x204F, r25
    3d3e:	10 92 6c 2c 	sts	0x2C6C, r1
    3d42:	10 92 6d 2c 	sts	0x2C6D, r1
    3d46:	10 92 6e 2c 	sts	0x2C6E, r1
    3d4a:	10 92 6f 2c 	sts	0x2C6F, r1
    3d4e:	10 92 70 2c 	sts	0x2C70, r1
    3d52:	81 e0       	ldi	r24, 0x01	; 1
    3d54:	80 93 71 2c 	sts	0x2C71, r24
    3d58:	0e 94 98 10 	call	0x2130	; 0x2130 <enableSysTick>
    3d5c:	64 df       	rcall	.-312    	; 0x3c26 <SetupStartPinExternalInterrupt>
    3d5e:	87 e0       	ldi	r24, 0x07	; 7
    3d60:	80 93 a2 00 	sts	0x00A2, r24
    3d64:	78 94       	sei
    3d66:	80 91 61 2c 	lds	r24, 0x2C61
    3d6a:	88 1f       	adc	r24, r24
    3d6c:	88 27       	eor	r24, r24
    3d6e:	88 1f       	adc	r24, r24
    3d70:	90 91 62 2c 	lds	r25, 0x2C62
    3d74:	9f 73       	andi	r25, 0x3F	; 63
    3d76:	99 0f       	add	r25, r25
    3d78:	98 2b       	or	r25, r24
    3d7a:	81 e0       	ldi	r24, 0x01	; 1
    3d7c:	09 f4       	brne	.+2      	; 0x3d80 <main+0x12c>
    3d7e:	80 e0       	ldi	r24, 0x00	; 0
    3d80:	0e 94 84 0f 	call	0x1f08	; 0x1f08 <powerOn>
    3d84:	80 93 73 2c 	sts	0x2C73, r24
    3d88:	0e 94 02 07 	call	0xe04	; 0xe04 <whichConfiguration>
    3d8c:	8b af       	std	Y+59, r24	; 0x3b
    3d8e:	0e 94 6c 06 	call	0xcd8	; 0xcd8 <loadConfiguration>
    3d92:	cd de       	rcall	.-614    	; 0x3b2e <selectHandlers>
    3d94:	80 91 62 2c 	lds	r24, 0x2C62
    3d98:	82 95       	swap	r24
    3d9a:	86 95       	lsr	r24
    3d9c:	86 95       	lsr	r24
    3d9e:	83 70       	andi	r24, 0x03	; 3
    3da0:	90 91 63 2c 	lds	r25, 0x2C63
    3da4:	99 0f       	add	r25, r25
    3da6:	99 0f       	add	r25, r25
    3da8:	98 2b       	or	r25, r24
    3daa:	81 e0       	ldi	r24, 0x01	; 1
    3dac:	09 f0       	breq	.+2      	; 0x3db0 <main+0x15c>
    3dae:	80 e0       	ldi	r24, 0x00	; 0
    3db0:	0e 94 c2 0f 	call	0x1f84	; 0x1f84 <setupLEDs>
    3db4:	82 e8       	ldi	r24, 0x82	; 130
    3db6:	98 e2       	ldi	r25, 0x28	; 40
    3db8:	0e 94 2a 11 	call	0x2254	; 0x2254 <sendUSBLine>
    3dbc:	8c e3       	ldi	r24, 0x3C	; 60
    3dbe:	99 e2       	ldi	r25, 0x29	; 41
    3dc0:	0e 94 2a 11 	call	0x2254	; 0x2254 <sendUSBLine>
    3dc4:	86 e4       	ldi	r24, 0x46	; 70
    3dc6:	99 e2       	ldi	r25, 0x29	; 41
    3dc8:	0e 94 2a 11 	call	0x2254	; 0x2254 <sendUSBLine>
    3dcc:	8c e3       	ldi	r24, 0x3C	; 60
    3dce:	99 e2       	ldi	r25, 0x29	; 41
    3dd0:	0e 94 2a 11 	call	0x2254	; 0x2254 <sendUSBLine>
    3dd4:	82 e8       	ldi	r24, 0x82	; 130
    3dd6:	98 e2       	ldi	r25, 0x28	; 40
    3dd8:	0e 94 78 0e 	call	0x1cf0	; 0x1cf0 <sendDBGLine>
    3ddc:	8c e3       	ldi	r24, 0x3C	; 60
    3dde:	99 e2       	ldi	r25, 0x29	; 41
    3de0:	0e 94 78 0e 	call	0x1cf0	; 0x1cf0 <sendDBGLine>
    3de4:	86 e4       	ldi	r24, 0x46	; 70
    3de6:	99 e2       	ldi	r25, 0x29	; 41
    3de8:	0e 94 78 0e 	call	0x1cf0	; 0x1cf0 <sendDBGLine>
    3dec:	8c e3       	ldi	r24, 0x3C	; 60
    3dee:	99 e2       	ldi	r25, 0x29	; 41
    3df0:	0e 94 78 0e 	call	0x1cf0	; 0x1cf0 <sendDBGLine>
    3df4:	80 91 75 2c 	lds	r24, 0x2C75
    3df8:	20 e1       	ldi	r18, 0x10	; 16
    3dfa:	82 9f       	mul	r24, r18
    3dfc:	c0 01       	movw	r24, r0
    3dfe:	11 24       	eor	r1, r1
    3e00:	8f 51       	subi	r24, 0x1F	; 31
    3e02:	94 4d       	sbci	r25, 0xD4	; 212
    3e04:	d0 dd       	rcall	.-1120   	; 0x39a6 <initBTComms>
    3e06:	a8 95       	wdr
    3e08:	e0 91 d5 2b 	lds	r30, 0x2BD5
    3e0c:	f0 91 d6 2b 	lds	r31, 0x2BD6
    3e10:	30 97       	sbiw	r30, 0x00	; 0
    3e12:	21 f0       	breq	.+8      	; 0x3e1c <main+0x1c8>
    3e14:	85 e7       	ldi	r24, 0x75	; 117
    3e16:	9c e2       	ldi	r25, 0x2C	; 44
    3e18:	09 95       	icall
    3e1a:	04 c0       	rjmp	.+8      	; 0x3e24 <main+0x1d0>
    3e1c:	8f e5       	ldi	r24, 0x5F	; 95
    3e1e:	99 e2       	ldi	r25, 0x29	; 41
    3e20:	0e 94 78 0e 	call	0x1cf0	; 0x1cf0 <sendDBGLine>
    3e24:	6e 01       	movw	r12, r28
    3e26:	81 e3       	ldi	r24, 0x31	; 49
    3e28:	c8 0e       	add	r12, r24
    3e2a:	d1 1c       	adc	r13, r1
    3e2c:	41 e0       	ldi	r20, 0x01	; 1
    3e2e:	50 e0       	ldi	r21, 0x00	; 0
    3e30:	60 e0       	ldi	r22, 0x00	; 0
    3e32:	70 e0       	ldi	r23, 0x00	; 0
    3e34:	c6 01       	movw	r24, r12
    3e36:	0e 94 4c 10 	call	0x2098	; 0x2098 <startTimeout>
    3e3a:	0e 94 b1 11 	call	0x2362	; 0x2362 <WatchdogPet>
    3e3e:	7e 01       	movw	r14, r28
    3e40:	99 e2       	ldi	r25, 0x29	; 41
    3e42:	e9 0e       	add	r14, r25
    3e44:	f1 1c       	adc	r15, r1
    3e46:	44 e0       	ldi	r20, 0x04	; 4
    3e48:	50 e0       	ldi	r21, 0x00	; 0
    3e4a:	60 e0       	ldi	r22, 0x00	; 0
    3e4c:	70 e0       	ldi	r23, 0x00	; 0
    3e4e:	c7 01       	movw	r24, r14
    3e50:	0e 94 4c 10 	call	0x2098	; 0x2098 <startTimeout>
    3e54:	0e 94 b1 11 	call	0x2362	; 0x2362 <WatchdogPet>
    3e58:	48 ee       	ldi	r20, 0xE8	; 232
    3e5a:	53 e0       	ldi	r21, 0x03	; 3
    3e5c:	60 e0       	ldi	r22, 0x00	; 0
    3e5e:	70 e0       	ldi	r23, 0x00	; 0
    3e60:	ce 01       	movw	r24, r28
    3e62:	41 96       	adiw	r24, 0x11	; 17
    3e64:	0e 94 4c 10 	call	0x2098	; 0x2098 <startTimeout>
    3e68:	0e 94 b1 11 	call	0x2362	; 0x2362 <WatchdogPet>
    3e6c:	8e 01       	movw	r16, r28
    3e6e:	07 5f       	subi	r16, 0xF7	; 247
    3e70:	1f 4f       	sbci	r17, 0xFF	; 255
    3e72:	48 ee       	ldi	r20, 0xE8	; 232
    3e74:	53 e0       	ldi	r21, 0x03	; 3
    3e76:	60 e0       	ldi	r22, 0x00	; 0
    3e78:	70 e0       	ldi	r23, 0x00	; 0
    3e7a:	c8 01       	movw	r24, r16
    3e7c:	0e 94 4c 10 	call	0x2098	; 0x2098 <startTimeout>
    3e80:	0e 94 b1 11 	call	0x2362	; 0x2362 <WatchdogPet>
    3e84:	40 ee       	ldi	r20, 0xE0	; 224
    3e86:	53 e9       	ldi	r21, 0x93	; 147
    3e88:	64 e0       	ldi	r22, 0x04	; 4
    3e8a:	70 e0       	ldi	r23, 0x00	; 0
    3e8c:	ce 01       	movw	r24, r28
    3e8e:	01 96       	adiw	r24, 0x01	; 1
    3e90:	0e 94 4c 10 	call	0x2098	; 0x2098 <startTimeout>
    3e94:	0e 94 b1 11 	call	0x2362	; 0x2362 <WatchdogPet>
    3e98:	5e 01       	movw	r10, r28
    3e9a:	a1 e2       	ldi	r26, 0x21	; 33
    3e9c:	aa 0e       	add	r10, r26
    3e9e:	b1 1c       	adc	r11, r1
    3ea0:	c5 01       	movw	r24, r10
    3ea2:	0e 94 92 10 	call	0x2124	; 0x2124 <cancelTimeout>
    3ea6:	8d e7       	ldi	r24, 0x7D	; 125
    3ea8:	99 e2       	ldi	r25, 0x29	; 41
    3eaa:	0e 94 78 0e 	call	0x1cf0	; 0x1cf0 <sendDBGLine>
    3eae:	1a ae       	std	Y+58, r1	; 0x3a
    3eb0:	19 ae       	std	Y+57, r1	; 0x39
    3eb2:	3c 2c       	mov	r3, r12
    3eb4:	2d 2c       	mov	r2, r13
    3eb6:	7e 2c       	mov	r7, r14
    3eb8:	6f 2c       	mov	r6, r15
    3eba:	50 2e       	mov	r5, r16
    3ebc:	41 2e       	mov	r4, r17
    3ebe:	e3 ee       	ldi	r30, 0xE3	; 227
    3ec0:	f1 e0       	ldi	r31, 0x01	; 1
    3ec2:	b4 91       	lpm	r27, Z
    3ec4:	bc af       	std	Y+60, r27	; 0x3c
    3ec6:	9a 2c       	mov	r9, r10
    3ec8:	8b 2c       	mov	r8, r11
    3eca:	83 2d       	mov	r24, r3
    3ecc:	92 2d       	mov	r25, r2
    3ece:	0e 94 65 10 	call	0x20ca	; 0x20ca <checkTimeout>
    3ed2:	81 11       	cpse	r24, r1
    3ed4:	1f c0       	rjmp	.+62     	; 0x3f14 <main+0x2c0>
    3ed6:	87 2d       	mov	r24, r7
    3ed8:	96 2d       	mov	r25, r6
    3eda:	0e 94 65 10 	call	0x20ca	; 0x20ca <checkTimeout>
    3ede:	81 11       	cpse	r24, r1
    3ee0:	19 c0       	rjmp	.+50     	; 0x3f14 <main+0x2c0>
    3ee2:	85 2d       	mov	r24, r5
    3ee4:	94 2d       	mov	r25, r4
    3ee6:	0e 94 65 10 	call	0x20ca	; 0x20ca <checkTimeout>
    3eea:	81 11       	cpse	r24, r1
    3eec:	13 c0       	rjmp	.+38     	; 0x3f14 <main+0x2c0>
    3eee:	80 91 48 00 	lds	r24, 0x0048
    3ef2:	81 7f       	andi	r24, 0xF1	; 241
    3ef4:	ec ad       	ldd	r30, Y+60	; 0x3c
    3ef6:	8e 2b       	or	r24, r30
    3ef8:	80 93 48 00 	sts	0x0048, r24
    3efc:	80 91 48 00 	lds	r24, 0x0048
    3f00:	81 60       	ori	r24, 0x01	; 1
    3f02:	80 93 48 00 	sts	0x0048, r24
    3f06:	78 94       	sei
    3f08:	88 95       	sleep
    3f0a:	80 91 48 00 	lds	r24, 0x0048
    3f0e:	8e 7f       	andi	r24, 0xFE	; 254
    3f10:	80 93 48 00 	sts	0x0048, r24
    3f14:	0e 94 b1 11 	call	0x2362	; 0x2362 <WatchdogPet>
    3f18:	80 e0       	ldi	r24, 0x00	; 0
    3f1a:	0e 94 c7 11 	call	0x238e	; 0x238e <WatchdogTaskRunning>
    3f1e:	85 2d       	mov	r24, r5
    3f20:	94 2d       	mov	r25, r4
    3f22:	0e 94 65 10 	call	0x20ca	; 0x20ca <checkTimeout>
    3f26:	88 23       	and	r24, r24
    3f28:	79 f0       	breq	.+30     	; 0x3f48 <main+0x2f4>
    3f2a:	48 ee       	ldi	r20, 0xE8	; 232
    3f2c:	53 e0       	ldi	r21, 0x03	; 3
    3f2e:	60 e0       	ldi	r22, 0x00	; 0
    3f30:	70 e0       	ldi	r23, 0x00	; 0
    3f32:	85 2d       	mov	r24, r5
    3f34:	94 2d       	mov	r25, r4
    3f36:	0e 94 4c 10 	call	0x2098	; 0x2098 <startTimeout>
    3f3a:	80 91 74 2c 	lds	r24, 0x2C74
    3f3e:	f1 e0       	ldi	r31, 0x01	; 1
    3f40:	8f 27       	eor	r24, r31
    3f42:	80 93 74 2c 	sts	0x2C74, r24
    3f46:	bd dd       	rcall	.-1158   	; 0x3ac2 <maintainControllerStatus>
    3f48:	83 2d       	mov	r24, r3
    3f4a:	92 2d       	mov	r25, r2
    3f4c:	0e 94 65 10 	call	0x20ca	; 0x20ca <checkTimeout>
    3f50:	88 23       	and	r24, r24
    3f52:	09 f4       	brne	.+2      	; 0x3f56 <main+0x302>
    3f54:	ae c0       	rjmp	.+348    	; 0x40b2 <main+0x45e>
    3f56:	41 e0       	ldi	r20, 0x01	; 1
    3f58:	50 e0       	ldi	r21, 0x00	; 0
    3f5a:	60 e0       	ldi	r22, 0x00	; 0
    3f5c:	70 e0       	ldi	r23, 0x00	; 0
    3f5e:	83 2d       	mov	r24, r3
    3f60:	92 2d       	mov	r25, r2
    3f62:	0e 94 4c 10 	call	0x2098	; 0x2098 <startTimeout>
    3f66:	82 e0       	ldi	r24, 0x02	; 2
    3f68:	e8 2e       	mov	r14, r24
    3f6a:	80 e2       	ldi	r24, 0x20	; 32
    3f6c:	f8 2e       	mov	r15, r24
    3f6e:	91 e0       	ldi	r25, 0x01	; 1
    3f70:	c9 2e       	mov	r12, r25
    3f72:	90 e2       	ldi	r25, 0x20	; 32
    3f74:	d9 2e       	mov	r13, r25
    3f76:	86 01       	movw	r16, r12
    3f78:	57 01       	movw	r10, r14
    3f7a:	90 e0       	ldi	r25, 0x00	; 0
    3f7c:	d5 01       	movw	r26, r10
    3f7e:	8c 91       	ld	r24, X
    3f80:	81 11       	cpse	r24, r1
    3f82:	07 c0       	rjmp	.+14     	; 0x3f92 <main+0x33e>
    3f84:	89 2f       	mov	r24, r25
    3f86:	9d af       	std	Y+61, r25	; 0x3d
    3f88:	0e 94 6c 03 	call	0x6d8	; 0x6d8 <buttonActivated>
    3f8c:	9d ad       	ldd	r25, Y+61	; 0x3d
    3f8e:	81 11       	cpse	r24, r1
    3f90:	0b c0       	rjmp	.+22     	; 0x3fa8 <main+0x354>
    3f92:	d5 01       	movw	r26, r10
    3f94:	8c 91       	ld	r24, X
    3f96:	88 23       	and	r24, r24
    3f98:	61 f0       	breq	.+24     	; 0x3fb2 <main+0x35e>
    3f9a:	89 2f       	mov	r24, r25
    3f9c:	9d af       	std	Y+61, r25	; 0x3d
    3f9e:	0e 94 6c 03 	call	0x6d8	; 0x6d8 <buttonActivated>
    3fa2:	9d ad       	ldd	r25, Y+61	; 0x3d
    3fa4:	81 11       	cpse	r24, r1
    3fa6:	05 c0       	rjmp	.+10     	; 0x3fb2 <main+0x35e>
    3fa8:	f8 01       	movw	r30, r16
    3faa:	80 81       	ld	r24, Z
    3fac:	8f 5f       	subi	r24, 0xFF	; 255
    3fae:	80 83       	st	Z, r24
    3fb0:	02 c0       	rjmp	.+4      	; 0x3fb6 <main+0x362>
    3fb2:	d8 01       	movw	r26, r16
    3fb4:	1c 92       	st	X, r1
    3fb6:	9f 5f       	subi	r25, 0xFF	; 255
    3fb8:	b4 e0       	ldi	r27, 0x04	; 4
    3fba:	ab 0e       	add	r10, r27
    3fbc:	b1 1c       	adc	r11, r1
    3fbe:	0c 5f       	subi	r16, 0xFC	; 252
    3fc0:	1f 4f       	sbci	r17, 0xFF	; 255
    3fc2:	9e 30       	cpi	r25, 0x0E	; 14
    3fc4:	d9 f6       	brne	.-74     	; 0x3f7c <main+0x328>
    3fc6:	10 e0       	ldi	r17, 0x00	; 0
    3fc8:	f6 01       	movw	r30, r12
    3fca:	80 81       	ld	r24, Z
    3fcc:	84 30       	cpi	r24, 0x04	; 4
    3fce:	78 f1       	brcs	.+94     	; 0x402e <main+0x3da>
    3fd0:	10 82       	st	Z, r1
    3fd2:	f7 01       	movw	r30, r14
    3fd4:	80 81       	ld	r24, Z
    3fd6:	81 11       	cpse	r24, r1
    3fd8:	03 c0       	rjmp	.+6      	; 0x3fe0 <main+0x38c>
    3fda:	21 e0       	ldi	r18, 0x01	; 1
    3fdc:	20 83       	st	Z, r18
    3fde:	01 c0       	rjmp	.+2      	; 0x3fe2 <main+0x38e>
    3fe0:	10 82       	st	Z, r1
    3fe2:	80 91 d7 2b 	lds	r24, 0x2BD7
    3fe6:	90 91 d8 2b 	lds	r25, 0x2BD8
    3fea:	89 2b       	or	r24, r25
    3fec:	81 f0       	breq	.+32     	; 0x400e <main+0x3ba>
    3fee:	40 ee       	ldi	r20, 0xE0	; 224
    3ff0:	53 e9       	ldi	r21, 0x93	; 147
    3ff2:	64 e0       	ldi	r22, 0x04	; 4
    3ff4:	70 e0       	ldi	r23, 0x00	; 0
    3ff6:	ce 01       	movw	r24, r28
    3ff8:	01 96       	adiw	r24, 0x01	; 1
    3ffa:	0e 94 4c 10 	call	0x2098	; 0x2098 <startTimeout>
    3ffe:	e0 91 d7 2b 	lds	r30, 0x2BD7
    4002:	f0 91 d8 2b 	lds	r31, 0x2BD8
    4006:	d7 01       	movw	r26, r14
    4008:	6c 91       	ld	r22, X
    400a:	81 2f       	mov	r24, r17
    400c:	09 95       	icall
    400e:	18 30       	cpi	r17, 0x08	; 8
    4010:	71 f4       	brne	.+28     	; 0x402e <main+0x3da>
    4012:	80 91 22 20 	lds	r24, 0x2022
    4016:	81 30       	cpi	r24, 0x01	; 1
    4018:	51 f4       	brne	.+20     	; 0x402e <main+0x3da>
    401a:	b2 e0       	ldi	r27, 0x02	; 2
    401c:	b0 93 22 20 	sts	0x2022, r27
    4020:	e0 91 d7 2b 	lds	r30, 0x2BD7
    4024:	f0 91 d8 2b 	lds	r31, 0x2BD8
    4028:	60 e0       	ldi	r22, 0x00	; 0
    402a:	88 e0       	ldi	r24, 0x08	; 8
    402c:	09 95       	icall
    402e:	1f 5f       	subi	r17, 0xFF	; 255
    4030:	e4 e0       	ldi	r30, 0x04	; 4
    4032:	ce 0e       	add	r12, r30
    4034:	d1 1c       	adc	r13, r1
    4036:	f4 e0       	ldi	r31, 0x04	; 4
    4038:	ef 0e       	add	r14, r31
    403a:	f1 1c       	adc	r15, r1
    403c:	1e 30       	cpi	r17, 0x0E	; 14
    403e:	21 f6       	brne	.-120    	; 0x3fc8 <main+0x374>
    4040:	29 ad       	ldd	r18, Y+57	; 0x39
    4042:	21 11       	cpse	r18, r1
    4044:	c1 c0       	rjmp	.+386    	; 0x41c8 <main+0x574>
    4046:	80 91 22 20 	lds	r24, 0x2022
    404a:	88 23       	and	r24, r24
    404c:	a1 f0       	breq	.+40     	; 0x4076 <main+0x422>
    404e:	20 91 dd 2b 	lds	r18, 0x2BDD
    4052:	30 e0       	ldi	r19, 0x00	; 0
    4054:	a2 e3       	ldi	r26, 0x32	; 50
    4056:	b0 e0       	ldi	r27, 0x00	; 0
    4058:	1d d1       	rcall	.+570    	; 0x4294 <__umulhisi3>
    405a:	ab 01       	movw	r20, r22
    405c:	bc 01       	movw	r22, r24
    405e:	89 2d       	mov	r24, r9
    4060:	98 2d       	mov	r25, r8
    4062:	0e 94 4c 10 	call	0x2098	; 0x2098 <startTimeout>
    4066:	81 e0       	ldi	r24, 0x01	; 1
    4068:	89 af       	std	Y+57, r24	; 0x39
    406a:	ae c0       	rjmp	.+348    	; 0x41c8 <main+0x574>
    406c:	89 2d       	mov	r24, r9
    406e:	98 2d       	mov	r25, r8
    4070:	0e 94 92 10 	call	0x2124	; 0x2124 <cancelTimeout>
    4074:	19 ae       	std	Y+57, r1	; 0x39
    4076:	9a ad       	ldd	r25, Y+58	; 0x3a
    4078:	91 11       	cpse	r25, r1
    407a:	ab c0       	rjmp	.+342    	; 0x41d2 <main+0x57e>
    407c:	80 91 26 20 	lds	r24, 0x2026
    4080:	88 23       	and	r24, r24
    4082:	b9 f0       	breq	.+46     	; 0x40b2 <main+0x45e>
    4084:	20 91 dd 2b 	lds	r18, 0x2BDD
    4088:	30 e0       	ldi	r19, 0x00	; 0
    408a:	a4 e6       	ldi	r26, 0x64	; 100
    408c:	b0 e0       	ldi	r27, 0x00	; 0
    408e:	02 d1       	rcall	.+516    	; 0x4294 <__umulhisi3>
    4090:	ab 01       	movw	r20, r22
    4092:	bc 01       	movw	r22, r24
    4094:	ce 01       	movw	r24, r28
    4096:	49 96       	adiw	r24, 0x19	; 25
    4098:	0e 94 4c 10 	call	0x2098	; 0x2098 <startTimeout>
    409c:	8b ad       	ldd	r24, Y+59	; 0x3b
    409e:	0e 94 c7 06 	call	0xd8e	; 0xd8e <displayWhichConfiguration>
    40a2:	a1 e0       	ldi	r26, 0x01	; 1
    40a4:	aa af       	std	Y+58, r26	; 0x3a
    40a6:	95 c0       	rjmp	.+298    	; 0x41d2 <main+0x57e>
    40a8:	ce 01       	movw	r24, r28
    40aa:	49 96       	adiw	r24, 0x19	; 25
    40ac:	0e 94 92 10 	call	0x2124	; 0x2124 <cancelTimeout>
    40b0:	1a ae       	std	Y+58, r1	; 0x3a
    40b2:	87 2d       	mov	r24, r7
    40b4:	96 2d       	mov	r25, r6
    40b6:	0e 94 65 10 	call	0x20ca	; 0x20ca <checkTimeout>
    40ba:	81 11       	cpse	r24, r1
    40bc:	07 c0       	rjmp	.+14     	; 0x40cc <main+0x478>
    40be:	89 2d       	mov	r24, r9
    40c0:	98 2d       	mov	r25, r8
    40c2:	0e 94 65 10 	call	0x20ca	; 0x20ca <checkTimeout>
    40c6:	81 11       	cpse	r24, r1
    40c8:	3d c0       	rjmp	.+122    	; 0x4144 <main+0x4f0>
    40ca:	59 c0       	rjmp	.+178    	; 0x417e <main+0x52a>
    40cc:	44 e0       	ldi	r20, 0x04	; 4
    40ce:	50 e0       	ldi	r21, 0x00	; 0
    40d0:	60 e0       	ldi	r22, 0x00	; 0
    40d2:	70 e0       	ldi	r23, 0x00	; 0
    40d4:	87 2d       	mov	r24, r7
    40d6:	96 2d       	mov	r25, r6
    40d8:	0e 94 4c 10 	call	0x2098	; 0x2098 <startTimeout>
    40dc:	09 e3       	ldi	r16, 0x39	; 57
    40de:	10 e2       	ldi	r17, 0x20	; 32
    40e0:	f1 2c       	mov	r15, r1
    40e2:	f8 01       	movw	r30, r16
    40e4:	81 85       	ldd	r24, Z+9	; 0x09
    40e6:	92 85       	ldd	r25, Z+10	; 0x0a
    40e8:	85 83       	std	Z+5, r24	; 0x05
    40ea:	96 83       	std	Z+6, r25	; 0x06
    40ec:	31 97       	sbiw	r30, 0x01	; 1
    40ee:	80 81       	ld	r24, Z
    40f0:	0e 94 36 01 	call	0x26c	; 0x26c <sampleAnalogChannel>
    40f4:	d8 01       	movw	r26, r16
    40f6:	19 96       	adiw	r26, 0x09	; 9
    40f8:	8d 93       	st	X+, r24
    40fa:	9c 93       	st	X, r25
    40fc:	1a 97       	sbiw	r26, 0x0a	; 10
    40fe:	1b 96       	adiw	r26, 0x0b	; 11
    4100:	8d 91       	ld	r24, X+
    4102:	9c 91       	ld	r25, X
    4104:	1c 97       	sbiw	r26, 0x0c	; 12
    4106:	17 96       	adiw	r26, 0x07	; 7
    4108:	8d 93       	st	X+, r24
    410a:	9c 93       	st	X, r25
    410c:	18 97       	sbiw	r26, 0x08	; 8
    410e:	8c 91       	ld	r24, X
    4110:	0e 94 36 01 	call	0x26c	; 0x26c <sampleAnalogChannel>
    4114:	f8 01       	movw	r30, r16
    4116:	83 87       	std	Z+11, r24	; 0x0b
    4118:	94 87       	std	Z+12, r25	; 0x0c
    411a:	e0 91 d9 2b 	lds	r30, 0x2BD9
    411e:	f0 91 da 2b 	lds	r31, 0x2BDA
    4122:	30 97       	sbiw	r30, 0x00	; 0
    4124:	41 f0       	breq	.+16     	; 0x4136 <main+0x4e2>
    4126:	d8 01       	movw	r26, r16
    4128:	19 96       	adiw	r26, 0x09	; 9
    412a:	6d 91       	ld	r22, X+
    412c:	7c 91       	ld	r23, X
    412e:	1a 97       	sbiw	r26, 0x0a	; 10
    4130:	ac 01       	movw	r20, r24
    4132:	8f 2d       	mov	r24, r15
    4134:	09 95       	icall
    4136:	f3 94       	inc	r15
    4138:	02 5f       	subi	r16, 0xF2	; 242
    413a:	1f 4f       	sbci	r17, 0xFF	; 255
    413c:	b2 e0       	ldi	r27, 0x02	; 2
    413e:	fb 12       	cpse	r15, r27
    4140:	d0 cf       	rjmp	.-96     	; 0x40e2 <main+0x48e>
    4142:	bd cf       	rjmp	.-134    	; 0x40be <main+0x46a>
    4144:	89 2d       	mov	r24, r9
    4146:	98 2d       	mov	r25, r8
    4148:	0e 94 92 10 	call	0x2124	; 0x2124 <cancelTimeout>
    414c:	ce 01       	movw	r24, r28
    414e:	01 96       	adiw	r24, 0x01	; 1
    4150:	0e 94 92 10 	call	0x2124	; 0x2124 <cancelTimeout>
    4154:	40 e0       	ldi	r20, 0x00	; 0
    4156:	60 e0       	ldi	r22, 0x00	; 0
    4158:	80 e0       	ldi	r24, 0x00	; 0
    415a:	0e 94 11 10 	call	0x2022	; 0x2022 <setLEDValue>
    415e:	80 91 61 2c 	lds	r24, 0x2C61
    4162:	88 1f       	adc	r24, r24
    4164:	88 27       	eor	r24, r24
    4166:	88 1f       	adc	r24, r24
    4168:	90 91 62 2c 	lds	r25, 0x2C62
    416c:	9f 73       	andi	r25, 0x3F	; 63
    416e:	99 0f       	add	r25, r25
    4170:	98 2b       	or	r25, r24
    4172:	81 e0       	ldi	r24, 0x01	; 1
    4174:	09 f4       	brne	.+2      	; 0x4178 <main+0x524>
    4176:	80 e0       	ldi	r24, 0x00	; 0
    4178:	0e 94 31 0f 	call	0x1e62	; 0x1e62 <powerOff>
    417c:	06 c0       	rjmp	.+12     	; 0x418a <main+0x536>
    417e:	ce 01       	movw	r24, r28
    4180:	01 96       	adiw	r24, 0x01	; 1
    4182:	0e 94 65 10 	call	0x20ca	; 0x20ca <checkTimeout>
    4186:	81 11       	cpse	r24, r1
    4188:	dd cf       	rjmp	.-70     	; 0x4144 <main+0x4f0>
    418a:	ce 01       	movw	r24, r28
    418c:	49 96       	adiw	r24, 0x19	; 25
    418e:	0e 94 65 10 	call	0x20ca	; 0x20ca <checkTimeout>
    4192:	88 23       	and	r24, r24
    4194:	b1 f0       	breq	.+44     	; 0x41c2 <main+0x56e>
    4196:	ce 01       	movw	r24, r28
    4198:	49 96       	adiw	r24, 0x19	; 25
    419a:	0e 94 92 10 	call	0x2124	; 0x2124 <cancelTimeout>
    419e:	b9 db       	rcall	.-2190   	; 0x3912 <bt_exitBypass>
    41a0:	60 dc       	rcall	.-1856   	; 0x3a62 <btClearAutoConnectList>
    41a2:	40 e0       	ldi	r20, 0x00	; 0
    41a4:	60 e0       	ldi	r22, 0x00	; 0
    41a6:	80 e0       	ldi	r24, 0x00	; 0
    41a8:	0e 94 11 10 	call	0x2022	; 0x2022 <setLEDValue>
    41ac:	60 e0       	ldi	r22, 0x00	; 0
    41ae:	72 e1       	ldi	r23, 0x12	; 18
    41b0:	8a e7       	ldi	r24, 0x7A	; 122
    41b2:	90 e0       	ldi	r25, 0x00	; 0
    41b4:	68 dc       	rcall	.-1840   	; 0x3a86 <__portable_avr_delay_cycles>
    41b6:	61 e0       	ldi	r22, 0x01	; 1
    41b8:	89 e7       	ldi	r24, 0x79	; 121
    41ba:	90 e0       	ldi	r25, 0x00	; 0
    41bc:	0e 94 e4 12 	call	0x25c8	; 0x25c8 <ccp_write_io>
    41c0:	ff cf       	rjmp	.-2      	; 0x41c0 <main+0x56c>
    41c2:	0e 94 dc 05 	call	0xbb8	; 0xbb8 <processComm>
    41c6:	81 ce       	rjmp	.-766    	; 0x3eca <main+0x276>
    41c8:	80 91 22 20 	lds	r24, 0x2022
    41cc:	81 11       	cpse	r24, r1
    41ce:	53 cf       	rjmp	.-346    	; 0x4076 <main+0x422>
    41d0:	4d cf       	rjmp	.-358    	; 0x406c <main+0x418>
    41d2:	80 91 26 20 	lds	r24, 0x2026
    41d6:	81 11       	cpse	r24, r1
    41d8:	6c cf       	rjmp	.-296    	; 0x40b2 <main+0x45e>
    41da:	66 cf       	rjmp	.-308    	; 0x40a8 <main+0x454>

000041dc <__vector_104>:
    41dc:	1f 92       	push	r1
    41de:	0f 92       	push	r0
    41e0:	0f b6       	in	r0, 0x3f	; 63
    41e2:	0f 92       	push	r0
    41e4:	11 24       	eor	r1, r1
    41e6:	0b b6       	in	r0, 0x3b	; 59
    41e8:	0f 92       	push	r0
    41ea:	2f 93       	push	r18
    41ec:	3f 93       	push	r19
    41ee:	4f 93       	push	r20
    41f0:	5f 93       	push	r21
    41f2:	6f 93       	push	r22
    41f4:	7f 93       	push	r23
    41f6:	8f 93       	push	r24
    41f8:	9f 93       	push	r25
    41fa:	af 93       	push	r26
    41fc:	bf 93       	push	r27
    41fe:	ef 93       	push	r30
    4200:	ff 93       	push	r31
    4202:	8f b7       	in	r24, 0x3f	; 63
    4204:	f8 94       	cli
    4206:	90 91 ac 06 	lds	r25, 0x06AC
    420a:	90 ff       	sbrs	r25, 0
    420c:	03 c0       	rjmp	.+6      	; 0x4214 <__vector_104+0x38>
    420e:	91 e0       	ldi	r25, 0x01	; 1
    4210:	90 93 ac 06 	sts	0x06AC, r25
    4214:	90 91 73 2c 	lds	r25, 0x2C73
    4218:	91 11       	cpse	r25, r1
    421a:	06 c0       	rjmp	.+12     	; 0x4228 <__vector_104+0x4c>
    421c:	61 e0       	ldi	r22, 0x01	; 1
    421e:	89 e7       	ldi	r24, 0x79	; 121
    4220:	90 e0       	ldi	r25, 0x00	; 0
    4222:	0e 94 e4 12 	call	0x25c8	; 0x25c8 <ccp_write_io>
    4226:	ff cf       	rjmp	.-2      	; 0x4226 <__vector_104+0x4a>
    4228:	8f bf       	out	0x3f, r24	; 63
    422a:	ff 91       	pop	r31
    422c:	ef 91       	pop	r30
    422e:	bf 91       	pop	r27
    4230:	af 91       	pop	r26
    4232:	9f 91       	pop	r25
    4234:	8f 91       	pop	r24
    4236:	7f 91       	pop	r23
    4238:	6f 91       	pop	r22
    423a:	5f 91       	pop	r21
    423c:	4f 91       	pop	r20
    423e:	3f 91       	pop	r19
    4240:	2f 91       	pop	r18
    4242:	0f 90       	pop	r0
    4244:	0b be       	out	0x3b, r0	; 59
    4246:	0f 90       	pop	r0
    4248:	0f be       	out	0x3f, r0	; 63
    424a:	0f 90       	pop	r0
    424c:	1f 90       	pop	r1
    424e:	18 95       	reti

00004250 <__udivmodsi4>:
    4250:	a1 e2       	ldi	r26, 0x21	; 33
    4252:	1a 2e       	mov	r1, r26
    4254:	aa 1b       	sub	r26, r26
    4256:	bb 1b       	sub	r27, r27
    4258:	fd 01       	movw	r30, r26
    425a:	0d c0       	rjmp	.+26     	; 0x4276 <__udivmodsi4_ep>

0000425c <__udivmodsi4_loop>:
    425c:	aa 1f       	adc	r26, r26
    425e:	bb 1f       	adc	r27, r27
    4260:	ee 1f       	adc	r30, r30
    4262:	ff 1f       	adc	r31, r31
    4264:	a2 17       	cp	r26, r18
    4266:	b3 07       	cpc	r27, r19
    4268:	e4 07       	cpc	r30, r20
    426a:	f5 07       	cpc	r31, r21
    426c:	20 f0       	brcs	.+8      	; 0x4276 <__udivmodsi4_ep>
    426e:	a2 1b       	sub	r26, r18
    4270:	b3 0b       	sbc	r27, r19
    4272:	e4 0b       	sbc	r30, r20
    4274:	f5 0b       	sbc	r31, r21

00004276 <__udivmodsi4_ep>:
    4276:	66 1f       	adc	r22, r22
    4278:	77 1f       	adc	r23, r23
    427a:	88 1f       	adc	r24, r24
    427c:	99 1f       	adc	r25, r25
    427e:	1a 94       	dec	r1
    4280:	69 f7       	brne	.-38     	; 0x425c <__udivmodsi4_loop>
    4282:	60 95       	com	r22
    4284:	70 95       	com	r23
    4286:	80 95       	com	r24
    4288:	90 95       	com	r25
    428a:	9b 01       	movw	r18, r22
    428c:	ac 01       	movw	r20, r24
    428e:	bd 01       	movw	r22, r26
    4290:	cf 01       	movw	r24, r30
    4292:	08 95       	ret

00004294 <__umulhisi3>:
    4294:	a2 9f       	mul	r26, r18
    4296:	b0 01       	movw	r22, r0
    4298:	b3 9f       	mul	r27, r19
    429a:	c0 01       	movw	r24, r0
    429c:	a3 9f       	mul	r26, r19
    429e:	01 d0       	rcall	.+2      	; 0x42a2 <__umulhisi3+0xe>
    42a0:	b2 9f       	mul	r27, r18
    42a2:	70 0d       	add	r23, r0
    42a4:	81 1d       	adc	r24, r1
    42a6:	11 24       	eor	r1, r1
    42a8:	91 1d       	adc	r25, r1
    42aa:	08 95       	ret

000042ac <memchr>:
    42ac:	fc 01       	movw	r30, r24
    42ae:	41 50       	subi	r20, 0x01	; 1
    42b0:	50 40       	sbci	r21, 0x00	; 0
    42b2:	30 f0       	brcs	.+12     	; 0x42c0 <memchr+0x14>
    42b4:	01 90       	ld	r0, Z+
    42b6:	06 16       	cp	r0, r22
    42b8:	d1 f7       	brne	.-12     	; 0x42ae <memchr+0x2>
    42ba:	31 97       	sbiw	r30, 0x01	; 1
    42bc:	cf 01       	movw	r24, r30
    42be:	08 95       	ret
    42c0:	88 27       	eor	r24, r24
    42c2:	99 27       	eor	r25, r25
    42c4:	08 95       	ret

000042c6 <memcpy>:
    42c6:	fb 01       	movw	r30, r22
    42c8:	dc 01       	movw	r26, r24
    42ca:	02 c0       	rjmp	.+4      	; 0x42d0 <memcpy+0xa>
    42cc:	01 90       	ld	r0, Z+
    42ce:	0d 92       	st	X+, r0
    42d0:	41 50       	subi	r20, 0x01	; 1
    42d2:	50 40       	sbci	r21, 0x00	; 0
    42d4:	d8 f7       	brcc	.-10     	; 0x42cc <memcpy+0x6>
    42d6:	08 95       	ret

000042d8 <strcmp>:
    42d8:	fb 01       	movw	r30, r22
    42da:	dc 01       	movw	r26, r24
    42dc:	8d 91       	ld	r24, X+
    42de:	01 90       	ld	r0, Z+
    42e0:	80 19       	sub	r24, r0
    42e2:	01 10       	cpse	r0, r1
    42e4:	d9 f3       	breq	.-10     	; 0x42dc <strcmp+0x4>
    42e6:	99 0b       	sbc	r25, r25
    42e8:	08 95       	ret

000042ea <_exit>:
    42ea:	f8 94       	cli

000042ec <__stop_program>:
    42ec:	ff cf       	rjmp	.-2      	; 0x42ec <__stop_program>
